SF:C:\Users\pl816\OneDrive\文件\git\my-http-server\src\api\mod.rs
FN:407,_RNCNCNvNvXsx_NtNtCs9ofXrUXFSdM_14my_http_server3api4fileNtBb_10list_filesNtNtCs2w4TRgjrzQ8_9actix_web7service18HttpServiceFactory8register10list_files00Bf_
FN:422,_RNCNCNvNvXsx_NtNtCs9ofXrUXFSdM_14my_http_server3api4fileNtBb_10list_filesNtNtCs2w4TRgjrzQ8_9actix_web7service18HttpServiceFactory8register10list_files0s0_0Bf_
FN:408,_RNCNCNvNvXsx_NtNtCs9ofXrUXFSdM_14my_http_server3api4fileNtBb_10list_filesNtNtCs2w4TRgjrzQ8_9actix_web7service18HttpServiceFactory8register10list_files0s_0Bf_
FN:289,_RNCNCNvNvXsy_NtNtCs9ofXrUXFSdM_14my_http_server3api4fileNtBb_9file_infoNtNtCs2w4TRgjrzQ8_9actix_web7service18HttpServiceFactory8register9file_info00Bf_
FN:311,_RNCNCNvNvXsy_NtNtCs9ofXrUXFSdM_14my_http_server3api4fileNtBb_9file_infoNtNtCs2w4TRgjrzQ8_9actix_web7service18HttpServiceFactory8register9file_info0s0_0Bf_
FN:312,_RNCNCNvNvXsy_NtNtCs9ofXrUXFSdM_14my_http_server3api4fileNtBb_9file_infoNtNtCs2w4TRgjrzQ8_9actix_web7service18HttpServiceFactory8register9file_info0s1_0Bf_
FN:295,_RNCNCNvNvXsy_NtNtCs9ofXrUXFSdM_14my_http_server3api4fileNtBb_9file_infoNtNtCs2w4TRgjrzQ8_9actix_web7service18HttpServiceFactory8register9file_info0s_0Bf_
FN:129,_RNCNvNtNtCs9ofXrUXFSdM_14my_http_server3api4file18validate_path_base0B7_
FN:113,_RNCNvNtNtCs9ofXrUXFSdM_14my_http_server3api4file25get_canonical_public_path0B7_
FN:39,_RNCNvNvXs8_NtCs9ofXrUXFSdM_14my_http_server3apiNtB9_11raw_openapiNtNtCs2w4TRgjrzQ8_9actix_web7service18HttpServiceFactory8register11raw_openapi0Bb_
FN:188,_RNCNvNvXsS_NtNtCs9ofXrUXFSdM_14my_http_server3api4fileNtB9_12get_raw_fileNtNtCs2w4TRgjrzQ8_9actix_web7service18HttpServiceFactory8register12get_raw_file0Bd_
FN:26,_RNCNvNvXs_NtCs9ofXrUXFSdM_14my_http_server3apiNtB8_4docsNtNtCs2w4TRgjrzQ8_9actix_web7service18HttpServiceFactory8register4docs0Ba_
FN:55,_RNCNvNvXsh_NtCs9ofXrUXFSdM_14my_http_server3apiNtB9_4metaNtNtCs2w4TRgjrzQ8_9actix_web7service18HttpServiceFactory8register4meta0Bb_
FN:67,_RNCNvNvXsq_NtCs9ofXrUXFSdM_14my_http_server3apiNtB9_7licenseNtNtCs2w4TRgjrzQ8_9actix_web7service18HttpServiceFactory8register7license0Bb_
FN:463,_RNCNvNvXsw_NtNtCs9ofXrUXFSdM_14my_http_server3api4fileNtB9_12check_existsNtNtCs2w4TRgjrzQ8_9actix_web7service18HttpServiceFactory8register12check_exists0Bd_
FN:348,_RNCNvNvXsx_NtNtCs9ofXrUXFSdM_14my_http_server3api4fileNtB9_10list_filesNtNtCs2w4TRgjrzQ8_9actix_web7service18HttpServiceFactory8register10list_files0Bd_
FN:271,_RNCNvNvXsy_NtNtCs9ofXrUXFSdM_14my_http_server3api4fileNtB9_9file_infoNtNtCs2w4TRgjrzQ8_9actix_web7service18HttpServiceFactory8register9file_info0Bd_
FN:92,_RNvMNtNtCs9ofXrUXFSdM_14my_http_server3api4fileNtB2_15ValidationError13into_response
FN:120,_RNvNtNtCs9ofXrUXFSdM_14my_http_server3api4file18validate_path_base
FN:111,_RNvNtNtCs9ofXrUXFSdM_14my_http_server3api4file25get_canonical_public_path
FN:144,_RNvNtNtCs9ofXrUXFSdM_14my_http_server3api4file25validate_and_resolve_path
FN:157,_RNvNtNtCs9ofXrUXFSdM_14my_http_server3api4file29validate_and_resolve_any_path
FN:164,_RNvNtNtCs9ofXrUXFSdM_14my_http_server3api4file35validate_and_resolve_directory_path
FN:39,_RNvNvXs8_NtCs9ofXrUXFSdM_14my_http_server3apiNtB7_11raw_openapiNtNtCs2w4TRgjrzQ8_9actix_web7service18HttpServiceFactory8register11raw_openapi
FN:188,_RNvNvXsS_NtNtCs9ofXrUXFSdM_14my_http_server3api4fileNtB7_12get_raw_fileNtNtCs2w4TRgjrzQ8_9actix_web7service18HttpServiceFactory8register12get_raw_file
FN:26,_RNvNvXs_NtCs9ofXrUXFSdM_14my_http_server3apiNtB6_4docsNtNtCs2w4TRgjrzQ8_9actix_web7service18HttpServiceFactory8register4docs
FN:55,_RNvNvXsh_NtCs9ofXrUXFSdM_14my_http_server3apiNtB7_4metaNtNtCs2w4TRgjrzQ8_9actix_web7service18HttpServiceFactory8register4meta
FN:67,_RNvNvXsq_NtCs9ofXrUXFSdM_14my_http_server3apiNtB7_7licenseNtNtCs2w4TRgjrzQ8_9actix_web7service18HttpServiceFactory8register7license
FN:463,_RNvNvXsw_NtNtCs9ofXrUXFSdM_14my_http_server3api4fileNtB7_12check_existsNtNtCs2w4TRgjrzQ8_9actix_web7service18HttpServiceFactory8register12check_exists
FN:348,_RNvNvXsx_NtNtCs9ofXrUXFSdM_14my_http_server3api4fileNtB7_10list_filesNtNtCs2w4TRgjrzQ8_9actix_web7service18HttpServiceFactory8register10list_files
FN:271,_RNvNvXsy_NtNtCs9ofXrUXFSdM_14my_http_server3api4fileNtB7_9file_infoNtNtCs2w4TRgjrzQ8_9actix_web7service18HttpServiceFactory8register9file_info
FN:407,_RNCNCNvNvXsx_NtNtCslE1WvBQdpRb_14my_http_server3api4fileNtBb_10list_filesNtNtCs2w4TRgjrzQ8_9actix_web7service18HttpServiceFactory8register10list_files00Bf_
FN:422,_RNCNCNvNvXsx_NtNtCslE1WvBQdpRb_14my_http_server3api4fileNtBb_10list_filesNtNtCs2w4TRgjrzQ8_9actix_web7service18HttpServiceFactory8register10list_files0s0_0Bf_
FN:408,_RNCNCNvNvXsx_NtNtCslE1WvBQdpRb_14my_http_server3api4fileNtBb_10list_filesNtNtCs2w4TRgjrzQ8_9actix_web7service18HttpServiceFactory8register10list_files0s_0Bf_
FN:289,_RNCNCNvNvXsy_NtNtCslE1WvBQdpRb_14my_http_server3api4fileNtBb_9file_infoNtNtCs2w4TRgjrzQ8_9actix_web7service18HttpServiceFactory8register9file_info00Bf_
FN:311,_RNCNCNvNvXsy_NtNtCslE1WvBQdpRb_14my_http_server3api4fileNtBb_9file_infoNtNtCs2w4TRgjrzQ8_9actix_web7service18HttpServiceFactory8register9file_info0s0_0Bf_
FN:312,_RNCNCNvNvXsy_NtNtCslE1WvBQdpRb_14my_http_server3api4fileNtBb_9file_infoNtNtCs2w4TRgjrzQ8_9actix_web7service18HttpServiceFactory8register9file_info0s1_0Bf_
FN:295,_RNCNCNvNvXsy_NtNtCslE1WvBQdpRb_14my_http_server3api4fileNtBb_9file_infoNtNtCs2w4TRgjrzQ8_9actix_web7service18HttpServiceFactory8register9file_info0s_0Bf_
FN:129,_RNCNvNtNtCslE1WvBQdpRb_14my_http_server3api4file18validate_path_base0B7_
FN:113,_RNCNvNtNtCslE1WvBQdpRb_14my_http_server3api4file25get_canonical_public_path0B7_
FN:39,_RNCNvNvXs8_NtCslE1WvBQdpRb_14my_http_server3apiNtB9_11raw_openapiNtNtCs2w4TRgjrzQ8_9actix_web7service18HttpServiceFactory8register11raw_openapi0Bb_
FN:188,_RNCNvNvXsS_NtNtCslE1WvBQdpRb_14my_http_server3api4fileNtB9_12get_raw_fileNtNtCs2w4TRgjrzQ8_9actix_web7service18HttpServiceFactory8register12get_raw_file0Bd_
FN:26,_RNCNvNvXs_NtCslE1WvBQdpRb_14my_http_server3apiNtB8_4docsNtNtCs2w4TRgjrzQ8_9actix_web7service18HttpServiceFactory8register4docs0Ba_
FN:55,_RNCNvNvXsh_NtCslE1WvBQdpRb_14my_http_server3apiNtB9_4metaNtNtCs2w4TRgjrzQ8_9actix_web7service18HttpServiceFactory8register4meta0Bb_
FN:67,_RNCNvNvXsq_NtCslE1WvBQdpRb_14my_http_server3apiNtB9_7licenseNtNtCs2w4TRgjrzQ8_9actix_web7service18HttpServiceFactory8register7license0Bb_
FN:463,_RNCNvNvXsw_NtNtCslE1WvBQdpRb_14my_http_server3api4fileNtB9_12check_existsNtNtCs2w4TRgjrzQ8_9actix_web7service18HttpServiceFactory8register12check_exists0Bd_
FN:348,_RNCNvNvXsx_NtNtCslE1WvBQdpRb_14my_http_server3api4fileNtB9_10list_filesNtNtCs2w4TRgjrzQ8_9actix_web7service18HttpServiceFactory8register10list_files0Bd_
FN:271,_RNCNvNvXsy_NtNtCslE1WvBQdpRb_14my_http_server3api4fileNtB9_9file_infoNtNtCs2w4TRgjrzQ8_9actix_web7service18HttpServiceFactory8register9file_info0Bd_
FN:92,_RNvMNtNtCslE1WvBQdpRb_14my_http_server3api4fileNtB2_15ValidationError13into_response
FN:120,_RNvNtNtCslE1WvBQdpRb_14my_http_server3api4file18validate_path_base
FN:111,_RNvNtNtCslE1WvBQdpRb_14my_http_server3api4file25get_canonical_public_path
FN:144,_RNvNtNtCslE1WvBQdpRb_14my_http_server3api4file25validate_and_resolve_path
FN:157,_RNvNtNtCslE1WvBQdpRb_14my_http_server3api4file29validate_and_resolve_any_path
FN:164,_RNvNtNtCslE1WvBQdpRb_14my_http_server3api4file35validate_and_resolve_directory_path
FN:39,_RNvNvXs8_NtCslE1WvBQdpRb_14my_http_server3apiNtB7_11raw_openapiNtNtCs2w4TRgjrzQ8_9actix_web7service18HttpServiceFactory8register11raw_openapi
FN:188,_RNvNvXsS_NtNtCslE1WvBQdpRb_14my_http_server3api4fileNtB7_12get_raw_fileNtNtCs2w4TRgjrzQ8_9actix_web7service18HttpServiceFactory8register12get_raw_file
FN:26,_RNvNvXs_NtCslE1WvBQdpRb_14my_http_server3apiNtB6_4docsNtNtCs2w4TRgjrzQ8_9actix_web7service18HttpServiceFactory8register4docs
FN:55,_RNvNvXsh_NtCslE1WvBQdpRb_14my_http_server3apiNtB7_4metaNtNtCs2w4TRgjrzQ8_9actix_web7service18HttpServiceFactory8register4meta
FN:67,_RNvNvXsq_NtCslE1WvBQdpRb_14my_http_server3apiNtB7_7licenseNtNtCs2w4TRgjrzQ8_9actix_web7service18HttpServiceFactory8register7license
FN:463,_RNvNvXsw_NtNtCslE1WvBQdpRb_14my_http_server3api4fileNtB7_12check_existsNtNtCs2w4TRgjrzQ8_9actix_web7service18HttpServiceFactory8register12check_exists
FN:348,_RNvNvXsx_NtNtCslE1WvBQdpRb_14my_http_server3api4fileNtB7_10list_filesNtNtCs2w4TRgjrzQ8_9actix_web7service18HttpServiceFactory8register10list_files
FN:271,_RNvNvXsy_NtNtCslE1WvBQdpRb_14my_http_server3api4fileNtB7_9file_infoNtNtCs2w4TRgjrzQ8_9actix_web7service18HttpServiceFactory8register9file_info
FNDA:0,_RNCNCNvNvXsx_NtNtCs9ofXrUXFSdM_14my_http_server3api4fileNtBb_10list_filesNtNtCs2w4TRgjrzQ8_9actix_web7service18HttpServiceFactory8register10list_files00Bf_
FNDA:0,_RNCNCNvNvXsx_NtNtCs9ofXrUXFSdM_14my_http_server3api4fileNtBb_10list_filesNtNtCs2w4TRgjrzQ8_9actix_web7service18HttpServiceFactory8register10list_files0s0_0Bf_
FNDA:0,_RNCNCNvNvXsx_NtNtCs9ofXrUXFSdM_14my_http_server3api4fileNtBb_10list_filesNtNtCs2w4TRgjrzQ8_9actix_web7service18HttpServiceFactory8register10list_files0s_0Bf_
FNDA:0,_RNCNCNvNvXsy_NtNtCs9ofXrUXFSdM_14my_http_server3api4fileNtBb_9file_infoNtNtCs2w4TRgjrzQ8_9actix_web7service18HttpServiceFactory8register9file_info00Bf_
FNDA:0,_RNCNCNvNvXsy_NtNtCs9ofXrUXFSdM_14my_http_server3api4fileNtBb_9file_infoNtNtCs2w4TRgjrzQ8_9actix_web7service18HttpServiceFactory8register9file_info0s0_0Bf_
FNDA:0,_RNCNCNvNvXsy_NtNtCs9ofXrUXFSdM_14my_http_server3api4fileNtBb_9file_infoNtNtCs2w4TRgjrzQ8_9actix_web7service18HttpServiceFactory8register9file_info0s1_0Bf_
FNDA:0,_RNCNCNvNvXsy_NtNtCs9ofXrUXFSdM_14my_http_server3api4fileNtBb_9file_infoNtNtCs2w4TRgjrzQ8_9actix_web7service18HttpServiceFactory8register9file_info0s_0Bf_
FNDA:0,_RNCNvNtNtCs9ofXrUXFSdM_14my_http_server3api4file18validate_path_base0B7_
FNDA:0,_RNCNvNtNtCs9ofXrUXFSdM_14my_http_server3api4file25get_canonical_public_path0B7_
FNDA:0,_RNCNvNvXs8_NtCs9ofXrUXFSdM_14my_http_server3apiNtB9_11raw_openapiNtNtCs2w4TRgjrzQ8_9actix_web7service18HttpServiceFactory8register11raw_openapi0Bb_
FNDA:0,_RNCNvNvXsS_NtNtCs9ofXrUXFSdM_14my_http_server3api4fileNtB9_12get_raw_fileNtNtCs2w4TRgjrzQ8_9actix_web7service18HttpServiceFactory8register12get_raw_file0Bd_
FNDA:0,_RNCNvNvXs_NtCs9ofXrUXFSdM_14my_http_server3apiNtB8_4docsNtNtCs2w4TRgjrzQ8_9actix_web7service18HttpServiceFactory8register4docs0Ba_
FNDA:0,_RNCNvNvXsh_NtCs9ofXrUXFSdM_14my_http_server3apiNtB9_4metaNtNtCs2w4TRgjrzQ8_9actix_web7service18HttpServiceFactory8register4meta0Bb_
FNDA:0,_RNCNvNvXsq_NtCs9ofXrUXFSdM_14my_http_server3apiNtB9_7licenseNtNtCs2w4TRgjrzQ8_9actix_web7service18HttpServiceFactory8register7license0Bb_
FNDA:0,_RNCNvNvXsw_NtNtCs9ofXrUXFSdM_14my_http_server3api4fileNtB9_12check_existsNtNtCs2w4TRgjrzQ8_9actix_web7service18HttpServiceFactory8register12check_exists0Bd_
FNDA:0,_RNCNvNvXsx_NtNtCs9ofXrUXFSdM_14my_http_server3api4fileNtB9_10list_filesNtNtCs2w4TRgjrzQ8_9actix_web7service18HttpServiceFactory8register10list_files0Bd_
FNDA:0,_RNCNvNvXsy_NtNtCs9ofXrUXFSdM_14my_http_server3api4fileNtB9_9file_infoNtNtCs2w4TRgjrzQ8_9actix_web7service18HttpServiceFactory8register9file_info0Bd_
FNDA:0,_RNvMNtNtCs9ofXrUXFSdM_14my_http_server3api4fileNtB2_15ValidationError13into_response
FNDA:0,_RNvNtNtCs9ofXrUXFSdM_14my_http_server3api4file18validate_path_base
FNDA:0,_RNvNtNtCs9ofXrUXFSdM_14my_http_server3api4file25get_canonical_public_path
FNDA:0,_RNvNtNtCs9ofXrUXFSdM_14my_http_server3api4file25validate_and_resolve_path
FNDA:0,_RNvNtNtCs9ofXrUXFSdM_14my_http_server3api4file29validate_and_resolve_any_path
FNDA:0,_RNvNtNtCs9ofXrUXFSdM_14my_http_server3api4file35validate_and_resolve_directory_path
FNDA:0,_RNvNvXs8_NtCs9ofXrUXFSdM_14my_http_server3apiNtB7_11raw_openapiNtNtCs2w4TRgjrzQ8_9actix_web7service18HttpServiceFactory8register11raw_openapi
FNDA:0,_RNvNvXsS_NtNtCs9ofXrUXFSdM_14my_http_server3api4fileNtB7_12get_raw_fileNtNtCs2w4TRgjrzQ8_9actix_web7service18HttpServiceFactory8register12get_raw_file
FNDA:0,_RNvNvXs_NtCs9ofXrUXFSdM_14my_http_server3apiNtB6_4docsNtNtCs2w4TRgjrzQ8_9actix_web7service18HttpServiceFactory8register4docs
FNDA:0,_RNvNvXsh_NtCs9ofXrUXFSdM_14my_http_server3apiNtB7_4metaNtNtCs2w4TRgjrzQ8_9actix_web7service18HttpServiceFactory8register4meta
FNDA:0,_RNvNvXsq_NtCs9ofXrUXFSdM_14my_http_server3apiNtB7_7licenseNtNtCs2w4TRgjrzQ8_9actix_web7service18HttpServiceFactory8register7license
FNDA:0,_RNvNvXsw_NtNtCs9ofXrUXFSdM_14my_http_server3api4fileNtB7_12check_existsNtNtCs2w4TRgjrzQ8_9actix_web7service18HttpServiceFactory8register12check_exists
FNDA:0,_RNvNvXsx_NtNtCs9ofXrUXFSdM_14my_http_server3api4fileNtB7_10list_filesNtNtCs2w4TRgjrzQ8_9actix_web7service18HttpServiceFactory8register10list_files
FNDA:0,_RNvNvXsy_NtNtCs9ofXrUXFSdM_14my_http_server3api4fileNtB7_9file_infoNtNtCs2w4TRgjrzQ8_9actix_web7service18HttpServiceFactory8register9file_info
FNDA:0,_RNCNCNvNvXsx_NtNtCslE1WvBQdpRb_14my_http_server3api4fileNtBb_10list_filesNtNtCs2w4TRgjrzQ8_9actix_web7service18HttpServiceFactory8register10list_files00Bf_
FNDA:0,_RNCNCNvNvXsx_NtNtCslE1WvBQdpRb_14my_http_server3api4fileNtBb_10list_filesNtNtCs2w4TRgjrzQ8_9actix_web7service18HttpServiceFactory8register10list_files0s0_0Bf_
FNDA:0,_RNCNCNvNvXsx_NtNtCslE1WvBQdpRb_14my_http_server3api4fileNtBb_10list_filesNtNtCs2w4TRgjrzQ8_9actix_web7service18HttpServiceFactory8register10list_files0s_0Bf_
FNDA:0,_RNCNCNvNvXsy_NtNtCslE1WvBQdpRb_14my_http_server3api4fileNtBb_9file_infoNtNtCs2w4TRgjrzQ8_9actix_web7service18HttpServiceFactory8register9file_info00Bf_
FNDA:0,_RNCNCNvNvXsy_NtNtCslE1WvBQdpRb_14my_http_server3api4fileNtBb_9file_infoNtNtCs2w4TRgjrzQ8_9actix_web7service18HttpServiceFactory8register9file_info0s0_0Bf_
FNDA:0,_RNCNCNvNvXsy_NtNtCslE1WvBQdpRb_14my_http_server3api4fileNtBb_9file_infoNtNtCs2w4TRgjrzQ8_9actix_web7service18HttpServiceFactory8register9file_info0s1_0Bf_
FNDA:0,_RNCNCNvNvXsy_NtNtCslE1WvBQdpRb_14my_http_server3api4fileNtBb_9file_infoNtNtCs2w4TRgjrzQ8_9actix_web7service18HttpServiceFactory8register9file_info0s_0Bf_
FNDA:0,_RNCNvNtNtCslE1WvBQdpRb_14my_http_server3api4file18validate_path_base0B7_
FNDA:0,_RNCNvNtNtCslE1WvBQdpRb_14my_http_server3api4file25get_canonical_public_path0B7_
FNDA:0,_RNCNvNvXs8_NtCslE1WvBQdpRb_14my_http_server3apiNtB9_11raw_openapiNtNtCs2w4TRgjrzQ8_9actix_web7service18HttpServiceFactory8register11raw_openapi0Bb_
FNDA:0,_RNCNvNvXsS_NtNtCslE1WvBQdpRb_14my_http_server3api4fileNtB9_12get_raw_fileNtNtCs2w4TRgjrzQ8_9actix_web7service18HttpServiceFactory8register12get_raw_file0Bd_
FNDA:0,_RNCNvNvXs_NtCslE1WvBQdpRb_14my_http_server3apiNtB8_4docsNtNtCs2w4TRgjrzQ8_9actix_web7service18HttpServiceFactory8register4docs0Ba_
FNDA:0,_RNCNvNvXsh_NtCslE1WvBQdpRb_14my_http_server3apiNtB9_4metaNtNtCs2w4TRgjrzQ8_9actix_web7service18HttpServiceFactory8register4meta0Bb_
FNDA:0,_RNCNvNvXsq_NtCslE1WvBQdpRb_14my_http_server3apiNtB9_7licenseNtNtCs2w4TRgjrzQ8_9actix_web7service18HttpServiceFactory8register7license0Bb_
FNDA:0,_RNCNvNvXsw_NtNtCslE1WvBQdpRb_14my_http_server3api4fileNtB9_12check_existsNtNtCs2w4TRgjrzQ8_9actix_web7service18HttpServiceFactory8register12check_exists0Bd_
FNDA:0,_RNCNvNvXsx_NtNtCslE1WvBQdpRb_14my_http_server3api4fileNtB9_10list_filesNtNtCs2w4TRgjrzQ8_9actix_web7service18HttpServiceFactory8register10list_files0Bd_
FNDA:0,_RNCNvNvXsy_NtNtCslE1WvBQdpRb_14my_http_server3api4fileNtB9_9file_infoNtNtCs2w4TRgjrzQ8_9actix_web7service18HttpServiceFactory8register9file_info0Bd_
FNDA:0,_RNvMNtNtCslE1WvBQdpRb_14my_http_server3api4fileNtB2_15ValidationError13into_response
FNDA:0,_RNvNtNtCslE1WvBQdpRb_14my_http_server3api4file18validate_path_base
FNDA:0,_RNvNtNtCslE1WvBQdpRb_14my_http_server3api4file25get_canonical_public_path
FNDA:0,_RNvNtNtCslE1WvBQdpRb_14my_http_server3api4file25validate_and_resolve_path
FNDA:0,_RNvNtNtCslE1WvBQdpRb_14my_http_server3api4file29validate_and_resolve_any_path
FNDA:0,_RNvNtNtCslE1WvBQdpRb_14my_http_server3api4file35validate_and_resolve_directory_path
FNDA:0,_RNvNvXs8_NtCslE1WvBQdpRb_14my_http_server3apiNtB7_11raw_openapiNtNtCs2w4TRgjrzQ8_9actix_web7service18HttpServiceFactory8register11raw_openapi
FNDA:0,_RNvNvXsS_NtNtCslE1WvBQdpRb_14my_http_server3api4fileNtB7_12get_raw_fileNtNtCs2w4TRgjrzQ8_9actix_web7service18HttpServiceFactory8register12get_raw_file
FNDA:0,_RNvNvXs_NtCslE1WvBQdpRb_14my_http_server3apiNtB6_4docsNtNtCs2w4TRgjrzQ8_9actix_web7service18HttpServiceFactory8register4docs
FNDA:0,_RNvNvXsh_NtCslE1WvBQdpRb_14my_http_server3apiNtB7_4metaNtNtCs2w4TRgjrzQ8_9actix_web7service18HttpServiceFactory8register4meta
FNDA:0,_RNvNvXsq_NtCslE1WvBQdpRb_14my_http_server3apiNtB7_7licenseNtNtCs2w4TRgjrzQ8_9actix_web7service18HttpServiceFactory8register7license
FNDA:0,_RNvNvXsw_NtNtCslE1WvBQdpRb_14my_http_server3api4fileNtB7_12check_existsNtNtCs2w4TRgjrzQ8_9actix_web7service18HttpServiceFactory8register12check_exists
FNDA:0,_RNvNvXsx_NtNtCslE1WvBQdpRb_14my_http_server3api4fileNtB7_10list_filesNtNtCs2w4TRgjrzQ8_9actix_web7service18HttpServiceFactory8register10list_files
FNDA:0,_RNvNvXsy_NtNtCslE1WvBQdpRb_14my_http_server3api4fileNtB7_9file_infoNtNtCs2w4TRgjrzQ8_9actix_web7service18HttpServiceFactory8register9file_info
FNF:31
FNH:0
DA:26,0
DA:27,0
DA:28,0
DA:29,0
DA:30,0
DA:39,0
DA:40,0
DA:41,0
DA:42,0
DA:43,0
DA:45,0
DA:55,0
DA:56,0
DA:57,0
DA:67,0
DA:68,0
DA:69,0
DA:92,0
DA:93,0
DA:94,0
DA:95,0
DA:96,0
DA:97,0
DA:99,0
DA:100,0
DA:101,0
DA:102,0
DA:104,0
DA:111,0
DA:112,0
DA:113,0
DA:114,0
DA:115,0
DA:116,0
DA:117,0
DA:120,0
DA:121,0
DA:122,0
DA:123,0
DA:124,0
DA:125,0
DA:126,0
DA:128,0
DA:129,0
DA:130,0
DA:131,0
DA:133,0
DA:135,0
DA:137,0
DA:138,0
DA:139,0
DA:141,0
DA:142,0
DA:144,0
DA:145,0
DA:146,0
DA:147,0
DA:148,0
DA:150,0
DA:151,0
DA:152,0
DA:154,0
DA:155,0
DA:157,0
DA:158,0
DA:159,0
DA:160,0
DA:161,0
DA:162,0
DA:164,0
DA:165,0
DA:166,0
DA:167,0
DA:168,0
DA:170,0
DA:171,0
DA:172,0
DA:174,0
DA:175,0
DA:188,0
DA:189,0
DA:190,0
DA:191,0
DA:194,0
DA:195,0
DA:196,0
DA:199,0
DA:200,0
DA:201,0
DA:203,0
DA:271,0
DA:272,0
DA:273,0
DA:274,0
DA:277,0
DA:278,0
DA:279,0
DA:282,0
DA:283,0
DA:284,0
DA:287,0
DA:288,0
DA:289,0
DA:290,0
DA:291,0
DA:293,0
DA:294,0
DA:295,0
DA:296,0
DA:297,0
DA:298,0
DA:299,0
DA:300,0
DA:302,0
DA:303,0
DA:305,0
DA:308,0
DA:309,0
DA:310,0
DA:311,0
DA:312,0
DA:314,0
DA:315,0
DA:316,0
DA:317,0
DA:318,0
DA:319,0
DA:320,0
DA:321,0
DA:323,0
DA:324,0
DA:348,0
DA:349,0
DA:350,0
DA:351,0
DA:354,0
DA:355,0
DA:356,0
DA:359,0
DA:360,0
DA:361,0
DA:362,0
DA:365,0
DA:366,0
DA:367,0
DA:368,0
DA:369,0
DA:370,0
DA:371,0
DA:375,0
DA:376,0
DA:377,0
DA:378,0
DA:379,0
DA:380,0
DA:384,0
DA:386,0
DA:387,0
DA:388,0
DA:389,0
DA:390,0
DA:391,0
DA:394,0
DA:398,0
DA:399,0
DA:401,0
DA:404,0
DA:405,0
DA:406,0
DA:407,0
DA:408,0
DA:410,0
DA:411,0
DA:412,0
DA:413,0
DA:414,0
DA:415,0
DA:416,0
DA:417,0
DA:422,0
DA:424,0
DA:425,0
DA:426,0
DA:427,0
DA:428,0
DA:430,0
DA:431,0
DA:432,0
DA:433,0
DA:435,0
DA:436,0
DA:463,0
DA:464,0
DA:465,0
DA:466,0
DA:469,0
DA:470,0
DA:472,0
DA:473,0
DA:474,0
DA:475,0
DA:477,0
DA:480,0
DA:481,0
DA:482,0
DA:483,0
DA:485,0
DA:488,0
DA:489,0
DA:490,0
DA:491,0
DA:492,0
BRF:0
BRH:0
LF:230
LH:0
end_of_record
SF:C:\Users\pl816\OneDrive\文件\git\my-http-server\src\cofg\cli.rs
FN:112,_RNvMs0_NtNtCsJUKjIpJSKG_14my_http_server4cofg3cliNtB5_4Args16config_file_path
FN:78,_RNvXNtNtCsJUKjIpJSKG_14my_http_server4cofg3cliNtNtB4_6config9CofgAddrsINtNtCsgS7EKHCc5jD_4core7convert7TryFromRNtB2_4ArgsE8try_from
FN:93,_RNvXs_NtNtCsJUKjIpJSKG_14my_http_server4cofg3cliNtNtB6_6config9CofgAddrsINtNtCsgS7EKHCc5jD_4core7convert7TryFromNtB4_4ArgsE8try_from
FN:112,_RNvMs0_NtNtCsgBNAdYuGUwB_14my_http_server4cofg3cliNtB5_4Args16config_file_path
FN:78,_RNvXNtNtCsgBNAdYuGUwB_14my_http_server4cofg3cliNtNtB4_6config9CofgAddrsINtNtCsgS7EKHCc5jD_4core7convert7TryFromRNtB2_4ArgsE8try_from
FN:93,_RNvXs_NtNtCsgBNAdYuGUwB_14my_http_server4cofg3cliNtNtB6_6config9CofgAddrsINtNtCsgS7EKHCc5jD_4core7convert7TryFromNtB4_4ArgsE8try_from
FN:78,_RNvXNtNtCs9ofXrUXFSdM_14my_http_server4cofg3cliNtNtB4_6config9CofgAddrsINtNtCsgS7EKHCc5jD_4core7convert7TryFromRNtB2_4ArgsE8try_from
FN:93,_RNvXs_NtNtCs9ofXrUXFSdM_14my_http_server4cofg3cliNtNtB6_6config9CofgAddrsINtNtCsgS7EKHCc5jD_4core7convert7TryFromNtB4_4ArgsE8try_from
FN:112,_RNvMs0_NtNtCs9ofXrUXFSdM_14my_http_server4cofg3cliNtB5_4Args16config_file_path
FN:78,_RNvXNtNtCslE1WvBQdpRb_14my_http_server4cofg3cliNtNtB4_6config9CofgAddrsINtNtCsgS7EKHCc5jD_4core7convert7TryFromRNtB2_4ArgsE8try_from
FN:93,_RNvXs_NtNtCslE1WvBQdpRb_14my_http_server4cofg3cliNtNtB6_6config9CofgAddrsINtNtCsgS7EKHCc5jD_4core7convert7TryFromNtB4_4ArgsE8try_from
FN:112,_RNvMs0_NtNtCslE1WvBQdpRb_14my_http_server4cofg3cliNtB5_4Args16config_file_path
FNDA:16,_RNvMs0_NtNtCsJUKjIpJSKG_14my_http_server4cofg3cliNtB5_4Args16config_file_path
FNDA:4,_RNvXNtNtCsJUKjIpJSKG_14my_http_server4cofg3cliNtNtB4_6config9CofgAddrsINtNtCsgS7EKHCc5jD_4core7convert7TryFromRNtB2_4ArgsE8try_from
FNDA:1,_RNvXs_NtNtCsJUKjIpJSKG_14my_http_server4cofg3cliNtNtB6_6config9CofgAddrsINtNtCsgS7EKHCc5jD_4core7convert7TryFromNtB4_4ArgsE8try_from
FNDA:16,_RNvMs0_NtNtCsgBNAdYuGUwB_14my_http_server4cofg3cliNtB5_4Args16config_file_path
FNDA:4,_RNvXNtNtCsgBNAdYuGUwB_14my_http_server4cofg3cliNtNtB4_6config9CofgAddrsINtNtCsgS7EKHCc5jD_4core7convert7TryFromRNtB2_4ArgsE8try_from
FNDA:1,_RNvXs_NtNtCsgBNAdYuGUwB_14my_http_server4cofg3cliNtNtB6_6config9CofgAddrsINtNtCsgS7EKHCc5jD_4core7convert7TryFromNtB4_4ArgsE8try_from
FNDA:4,_RNvXNtNtCs9ofXrUXFSdM_14my_http_server4cofg3cliNtNtB4_6config9CofgAddrsINtNtCsgS7EKHCc5jD_4core7convert7TryFromRNtB2_4ArgsE8try_from
FNDA:1,_RNvXs_NtNtCs9ofXrUXFSdM_14my_http_server4cofg3cliNtNtB6_6config9CofgAddrsINtNtCsgS7EKHCc5jD_4core7convert7TryFromNtB4_4ArgsE8try_from
FNDA:16,_RNvMs0_NtNtCs9ofXrUXFSdM_14my_http_server4cofg3cliNtB5_4Args16config_file_path
FNDA:4,_RNvXNtNtCslE1WvBQdpRb_14my_http_server4cofg3cliNtNtB4_6config9CofgAddrsINtNtCsgS7EKHCc5jD_4core7convert7TryFromRNtB2_4ArgsE8try_from
FNDA:1,_RNvXs_NtNtCslE1WvBQdpRb_14my_http_server4cofg3cliNtNtB6_6config9CofgAddrsINtNtCsgS7EKHCc5jD_4core7convert7TryFromNtB4_4ArgsE8try_from
FNDA:16,_RNvMs0_NtNtCslE1WvBQdpRb_14my_http_server4cofg3cliNtB5_4Args16config_file_path
FNF:3
FNH:3
DA:78,16
DA:79,16
DA:80,4
DA:81,4
DA:82,4
DA:83,4
DA:85,12
DA:87,16
DA:93,4
DA:94,4
DA:95,4
DA:96,4
DA:97,4
DA:98,4
DA:100,0
DA:102,4
DA:112,64
DA:113,64
DA:114,48
DA:115,16
DA:116,8
DA:118,8
DA:120,64
BRF:0
BRH:0
LF:23
LH:22
end_of_record
SF:C:\Users\pl816\OneDrive\文件\git\my-http-server\src\cofg\config.rs
FN:413,_RNCNCNvMs_NtNtCsJUKjIpJSKG_14my_http_server4cofg6configNtB8_4Cofg10get_global00Bc_
FN:411,_RNCNvMs_NtNtCsJUKjIpJSKG_14my_http_server4cofg6configNtB6_4Cofg10get_global0Ba_
FN:446,_RNCNvMs_NtNtCsJUKjIpJSKG_14my_http_server4cofg6configNtB6_4Cofg10get_globals_0Ba_
FN:457,_RNCNvMs_NtNtCsJUKjIpJSKG_14my_http_server4cofg6configNtB6_4Cofg11init_global0Ba_
FN:398,_RNCNvMs_NtNtCsJUKjIpJSKG_14my_http_server4cofg6configNtB6_4Cofg3get0Ba_
FN:410,_RNvMs_NtNtCsJUKjIpJSKG_14my_http_server4cofg6configNtB4_4Cofg10get_global
FN:454,_RNvMs_NtNtCsJUKjIpJSKG_14my_http_server4cofg6configNtB4_4Cofg11init_global
FN:341,_RNvMs_NtNtCsJUKjIpJSKG_14my_http_server4cofg6configNtB4_4Cofg14load_from_disk
FN:287,_RNvMs_NtNtCsJUKjIpJSKG_14my_http_server4cofg6configNtB4_4Cofg21resolve_page_404_path
FN:346,_RNvMs_NtNtCsJUKjIpJSKG_14my_http_server4cofg6configNtB4_4Cofg22load_from_disk_or_init
FN:397,_RNvMs_NtNtCsJUKjIpJSKG_14my_http_server4cofg6configNtB4_4Cofg3get
FN:358,_RINvMs_NtNtCsJUKjIpJSKG_14my_http_server4cofg6configNtB5_4Cofg15new_from_sourceINtNtCsaG2qCFH5KCO_6config4file4FileNtNtNtB1i_6source6string16FileSourceStringNtNtB1i_6format10FileFormatEEB9_
FN:153,_RNCNvMs_NtNtCsJUKjIpJSKG_14my_http_server4cofg6configNtB6_4Cofg13get_xdg_paths0Ba_
FN:181,_RNvMs_NtNtCsJUKjIpJSKG_14my_http_server4cofg6configNtB4_4Cofg11new_layered
FN:370,_RNvMs_NtNtCsJUKjIpJSKG_14my_http_server4cofg6configNtB4_4Cofg12new_from_str
FN:152,_RNvMs_NtNtCsJUKjIpJSKG_14my_http_server4cofg6configNtB4_4Cofg13get_xdg_paths
FN:317,_RNvMs_NtNtCsJUKjIpJSKG_14my_http_server4cofg6configNtB4_4Cofg16resolve_hbs_path
FN:230,_RNvMs_NtNtCsJUKjIpJSKG_14my_http_server4cofg6configNtB4_4Cofg19apply_cli_overrides
FN:166,_RNvMs_NtNtCsJUKjIpJSKG_14my_http_server4cofg6configNtB4_4Cofg19get_xdg_config_path
FN:374,_RNvMs_NtNtCsJUKjIpJSKG_14my_http_server4cofg6configNtB4_4Cofg28configure_default_extensions
FN:132,_RNvXNtNtCsJUKjIpJSKG_14my_http_server4cofg6configNtB2_4CofgNtNtCsgS7EKHCc5jD_4core7default7Default7default
FN:476,_RNvXs0_NtNtCsJUKjIpJSKG_14my_http_server4cofg6configNtB5_9CofgAddrsNtNtCsgS7EKHCc5jD_4core3fmt7Display3fmt
FN:485,_RNvXs1_NtNtCsJUKjIpJSKG_14my_http_server4cofg6configNtB5_9CofgAddrsNtNtNtCslP1BYCnN0Ot_3std3net11socket_addr13ToSocketAddrs15to_socket_addrs
FN:358,_RINvMs_NtNtCsgBNAdYuGUwB_14my_http_server4cofg6configNtB5_4Cofg15new_from_sourceINtNtCsaG2qCFH5KCO_6config4file4FileNtNtNtB1j_6source6string16FileSourceStringNtNtB1j_6format10FileFormatEEB9_
FN:153,_RNCNvMs_NtNtCsgBNAdYuGUwB_14my_http_server4cofg6configNtB6_4Cofg13get_xdg_paths0Ba_
FN:181,_RNvMs_NtNtCsgBNAdYuGUwB_14my_http_server4cofg6configNtB4_4Cofg11new_layered
FN:370,_RNvMs_NtNtCsgBNAdYuGUwB_14my_http_server4cofg6configNtB4_4Cofg12new_from_str
FN:152,_RNvMs_NtNtCsgBNAdYuGUwB_14my_http_server4cofg6configNtB4_4Cofg13get_xdg_paths
FN:317,_RNvMs_NtNtCsgBNAdYuGUwB_14my_http_server4cofg6configNtB4_4Cofg16resolve_hbs_path
FN:230,_RNvMs_NtNtCsgBNAdYuGUwB_14my_http_server4cofg6configNtB4_4Cofg19apply_cli_overrides
FN:166,_RNvMs_NtNtCsgBNAdYuGUwB_14my_http_server4cofg6configNtB4_4Cofg19get_xdg_config_path
FN:374,_RNvMs_NtNtCsgBNAdYuGUwB_14my_http_server4cofg6configNtB4_4Cofg28configure_default_extensions
FN:132,_RNvXNtNtCsgBNAdYuGUwB_14my_http_server4cofg6configNtB2_4CofgNtNtCsgS7EKHCc5jD_4core7default7Default7default
FN:476,_RNvXs0_NtNtCsgBNAdYuGUwB_14my_http_server4cofg6configNtB5_9CofgAddrsNtNtCsgS7EKHCc5jD_4core3fmt7Display3fmt
FN:485,_RNvXs1_NtNtCsgBNAdYuGUwB_14my_http_server4cofg6configNtB5_9CofgAddrsNtNtNtCslP1BYCnN0Ot_3std3net11socket_addr13ToSocketAddrs15to_socket_addrs
FN:413,_RNCNCNvMs_NtNtCsgBNAdYuGUwB_14my_http_server4cofg6configNtB8_4Cofg10get_global00Bc_
FN:411,_RNCNvMs_NtNtCsgBNAdYuGUwB_14my_http_server4cofg6configNtB6_4Cofg10get_global0Ba_
FN:446,_RNCNvMs_NtNtCsgBNAdYuGUwB_14my_http_server4cofg6configNtB6_4Cofg10get_globals_0Ba_
FN:457,_RNCNvMs_NtNtCsgBNAdYuGUwB_14my_http_server4cofg6configNtB6_4Cofg11init_global0Ba_
FN:398,_RNCNvMs_NtNtCsgBNAdYuGUwB_14my_http_server4cofg6configNtB6_4Cofg3get0Ba_
FN:410,_RNvMs_NtNtCsgBNAdYuGUwB_14my_http_server4cofg6configNtB4_4Cofg10get_global
FN:454,_RNvMs_NtNtCsgBNAdYuGUwB_14my_http_server4cofg6configNtB4_4Cofg11init_global
FN:341,_RNvMs_NtNtCsgBNAdYuGUwB_14my_http_server4cofg6configNtB4_4Cofg14load_from_disk
FN:287,_RNvMs_NtNtCsgBNAdYuGUwB_14my_http_server4cofg6configNtB4_4Cofg21resolve_page_404_path
FN:346,_RNvMs_NtNtCsgBNAdYuGUwB_14my_http_server4cofg6configNtB4_4Cofg22load_from_disk_or_init
FN:397,_RNvMs_NtNtCsgBNAdYuGUwB_14my_http_server4cofg6configNtB4_4Cofg3get
FN:413,_RNCNCNvMs_NtNtCs9ofXrUXFSdM_14my_http_server4cofg6configNtB8_4Cofg10get_global00Bc_
FN:411,_RNCNvMs_NtNtCs9ofXrUXFSdM_14my_http_server4cofg6configNtB6_4Cofg10get_global0Ba_
FN:446,_RNCNvMs_NtNtCs9ofXrUXFSdM_14my_http_server4cofg6configNtB6_4Cofg10get_globals_0Ba_
FN:457,_RNCNvMs_NtNtCs9ofXrUXFSdM_14my_http_server4cofg6configNtB6_4Cofg11init_global0Ba_
FN:398,_RNCNvMs_NtNtCs9ofXrUXFSdM_14my_http_server4cofg6configNtB6_4Cofg3get0Ba_
FN:410,_RNvMs_NtNtCs9ofXrUXFSdM_14my_http_server4cofg6configNtB4_4Cofg10get_global
FN:454,_RNvMs_NtNtCs9ofXrUXFSdM_14my_http_server4cofg6configNtB4_4Cofg11init_global
FN:341,_RNvMs_NtNtCs9ofXrUXFSdM_14my_http_server4cofg6configNtB4_4Cofg14load_from_disk
FN:287,_RNvMs_NtNtCs9ofXrUXFSdM_14my_http_server4cofg6configNtB4_4Cofg21resolve_page_404_path
FN:346,_RNvMs_NtNtCs9ofXrUXFSdM_14my_http_server4cofg6configNtB4_4Cofg22load_from_disk_or_init
FN:397,_RNvMs_NtNtCs9ofXrUXFSdM_14my_http_server4cofg6configNtB4_4Cofg3get
FN:181,_RNvMs_NtNtCs9ofXrUXFSdM_14my_http_server4cofg6configNtB4_4Cofg11new_layered
FN:370,_RNvMs_NtNtCs9ofXrUXFSdM_14my_http_server4cofg6configNtB4_4Cofg12new_from_str
FN:152,_RNvMs_NtNtCs9ofXrUXFSdM_14my_http_server4cofg6configNtB4_4Cofg13get_xdg_paths
FN:317,_RNvMs_NtNtCs9ofXrUXFSdM_14my_http_server4cofg6configNtB4_4Cofg16resolve_hbs_path
FN:230,_RNvMs_NtNtCs9ofXrUXFSdM_14my_http_server4cofg6configNtB4_4Cofg19apply_cli_overrides
FN:166,_RNvMs_NtNtCs9ofXrUXFSdM_14my_http_server4cofg6configNtB4_4Cofg19get_xdg_config_path
FN:374,_RNvMs_NtNtCs9ofXrUXFSdM_14my_http_server4cofg6configNtB4_4Cofg28configure_default_extensions
FN:132,_RNvXNtNtCs9ofXrUXFSdM_14my_http_server4cofg6configNtB2_4CofgNtNtCsgS7EKHCc5jD_4core7default7Default7default
FN:476,_RNvXs0_NtNtCs9ofXrUXFSdM_14my_http_server4cofg6configNtB5_9CofgAddrsNtNtCsgS7EKHCc5jD_4core3fmt7Display3fmt
FN:485,_RNvXs1_NtNtCs9ofXrUXFSdM_14my_http_server4cofg6configNtB5_9CofgAddrsNtNtNtCslP1BYCnN0Ot_3std3net11socket_addr13ToSocketAddrs15to_socket_addrs
FN:358,_RINvMs_NtNtCs9ofXrUXFSdM_14my_http_server4cofg6configNtB5_4Cofg15new_from_sourceINtNtCsaG2qCFH5KCO_6config4file4FileNtNtNtB1j_6source6string16FileSourceStringNtNtB1j_6format10FileFormatEEB9_
FN:153,_RNCNvMs_NtNtCs9ofXrUXFSdM_14my_http_server4cofg6configNtB6_4Cofg13get_xdg_paths0Ba_
FN:181,_RNvMs_NtNtCslE1WvBQdpRb_14my_http_server4cofg6configNtB4_4Cofg11new_layered
FN:370,_RNvMs_NtNtCslE1WvBQdpRb_14my_http_server4cofg6configNtB4_4Cofg12new_from_str
FN:152,_RNvMs_NtNtCslE1WvBQdpRb_14my_http_server4cofg6configNtB4_4Cofg13get_xdg_paths
FN:317,_RNvMs_NtNtCslE1WvBQdpRb_14my_http_server4cofg6configNtB4_4Cofg16resolve_hbs_path
FN:230,_RNvMs_NtNtCslE1WvBQdpRb_14my_http_server4cofg6configNtB4_4Cofg19apply_cli_overrides
FN:166,_RNvMs_NtNtCslE1WvBQdpRb_14my_http_server4cofg6configNtB4_4Cofg19get_xdg_config_path
FN:374,_RNvMs_NtNtCslE1WvBQdpRb_14my_http_server4cofg6configNtB4_4Cofg28configure_default_extensions
FN:132,_RNvXNtNtCslE1WvBQdpRb_14my_http_server4cofg6configNtB2_4CofgNtNtCsgS7EKHCc5jD_4core7default7Default7default
FN:476,_RNvXs0_NtNtCslE1WvBQdpRb_14my_http_server4cofg6configNtB5_9CofgAddrsNtNtCsgS7EKHCc5jD_4core3fmt7Display3fmt
FN:485,_RNvXs1_NtNtCslE1WvBQdpRb_14my_http_server4cofg6configNtB5_9CofgAddrsNtNtNtCslP1BYCnN0Ot_3std3net11socket_addr13ToSocketAddrs15to_socket_addrs
FN:413,_RNCNCNvMs_NtNtCslE1WvBQdpRb_14my_http_server4cofg6configNtB8_4Cofg10get_global00Bc_
FN:411,_RNCNvMs_NtNtCslE1WvBQdpRb_14my_http_server4cofg6configNtB6_4Cofg10get_global0Ba_
FN:446,_RNCNvMs_NtNtCslE1WvBQdpRb_14my_http_server4cofg6configNtB6_4Cofg10get_globals_0Ba_
FN:457,_RNCNvMs_NtNtCslE1WvBQdpRb_14my_http_server4cofg6configNtB6_4Cofg11init_global0Ba_
FN:398,_RNCNvMs_NtNtCslE1WvBQdpRb_14my_http_server4cofg6configNtB6_4Cofg3get0Ba_
FN:410,_RNvMs_NtNtCslE1WvBQdpRb_14my_http_server4cofg6configNtB4_4Cofg10get_global
FN:454,_RNvMs_NtNtCslE1WvBQdpRb_14my_http_server4cofg6configNtB4_4Cofg11init_global
FN:341,_RNvMs_NtNtCslE1WvBQdpRb_14my_http_server4cofg6configNtB4_4Cofg14load_from_disk
FN:287,_RNvMs_NtNtCslE1WvBQdpRb_14my_http_server4cofg6configNtB4_4Cofg21resolve_page_404_path
FN:346,_RNvMs_NtNtCslE1WvBQdpRb_14my_http_server4cofg6configNtB4_4Cofg22load_from_disk_or_init
FN:397,_RNvMs_NtNtCslE1WvBQdpRb_14my_http_server4cofg6configNtB4_4Cofg3get
FN:358,_RINvMs_NtNtCslE1WvBQdpRb_14my_http_server4cofg6configNtB5_4Cofg15new_from_sourceINtNtCsaG2qCFH5KCO_6config4file4FileNtNtNtB1j_6source6string16FileSourceStringNtNtB1j_6format10FileFormatEEB9_
FN:153,_RNCNvMs_NtNtCslE1WvBQdpRb_14my_http_server4cofg6configNtB6_4Cofg13get_xdg_paths0Ba_
FNDA:0,_RNCNCNvMs_NtNtCsJUKjIpJSKG_14my_http_server4cofg6configNtB8_4Cofg10get_global00Bc_
FNDA:0,_RNCNvMs_NtNtCsJUKjIpJSKG_14my_http_server4cofg6configNtB6_4Cofg10get_global0Ba_
FNDA:0,_RNCNvMs_NtNtCsJUKjIpJSKG_14my_http_server4cofg6configNtB6_4Cofg10get_globals_0Ba_
FNDA:0,_RNCNvMs_NtNtCsJUKjIpJSKG_14my_http_server4cofg6configNtB6_4Cofg11init_global0Ba_
FNDA:0,_RNCNvMs_NtNtCsJUKjIpJSKG_14my_http_server4cofg6configNtB6_4Cofg3get0Ba_
FNDA:0,_RNvMs_NtNtCsJUKjIpJSKG_14my_http_server4cofg6configNtB4_4Cofg10get_global
FNDA:0,_RNvMs_NtNtCsJUKjIpJSKG_14my_http_server4cofg6configNtB4_4Cofg11init_global
FNDA:0,_RNvMs_NtNtCsJUKjIpJSKG_14my_http_server4cofg6configNtB4_4Cofg14load_from_disk
FNDA:0,_RNvMs_NtNtCsJUKjIpJSKG_14my_http_server4cofg6configNtB4_4Cofg21resolve_page_404_path
FNDA:0,_RNvMs_NtNtCsJUKjIpJSKG_14my_http_server4cofg6configNtB4_4Cofg22load_from_disk_or_init
FNDA:0,_RNvMs_NtNtCsJUKjIpJSKG_14my_http_server4cofg6configNtB4_4Cofg3get
FNDA:23,_RINvMs_NtNtCsJUKjIpJSKG_14my_http_server4cofg6configNtB5_4Cofg15new_from_sourceINtNtCsaG2qCFH5KCO_6config4file4FileNtNtNtB1i_6source6string16FileSourceStringNtNtB1i_6format10FileFormatEEB9_
FNDA:20,_RNCNvMs_NtNtCsJUKjIpJSKG_14my_http_server4cofg6configNtB6_4Cofg13get_xdg_paths0Ba_
FNDA:9,_RNvMs_NtNtCsJUKjIpJSKG_14my_http_server4cofg6configNtB4_4Cofg11new_layered
FNDA:23,_RNvMs_NtNtCsJUKjIpJSKG_14my_http_server4cofg6configNtB4_4Cofg12new_from_str
FNDA:20,_RNvMs_NtNtCsJUKjIpJSKG_14my_http_server4cofg6configNtB4_4Cofg13get_xdg_paths
FNDA:9,_RNvMs_NtNtCsJUKjIpJSKG_14my_http_server4cofg6configNtB4_4Cofg16resolve_hbs_path
FNDA:10,_RNvMs_NtNtCsJUKjIpJSKG_14my_http_server4cofg6configNtB4_4Cofg19apply_cli_overrides
FNDA:0,_RNvMs_NtNtCsJUKjIpJSKG_14my_http_server4cofg6configNtB4_4Cofg19get_xdg_config_path
FNDA:33,_RNvMs_NtNtCsJUKjIpJSKG_14my_http_server4cofg6configNtB4_4Cofg28configure_default_extensions
FNDA:23,_RNvXNtNtCsJUKjIpJSKG_14my_http_server4cofg6configNtB2_4CofgNtNtCsgS7EKHCc5jD_4core7default7Default7default
FNDA:1,_RNvXs0_NtNtCsJUKjIpJSKG_14my_http_server4cofg6configNtB5_9CofgAddrsNtNtCsgS7EKHCc5jD_4core3fmt7Display3fmt
FNDA:1,_RNvXs1_NtNtCsJUKjIpJSKG_14my_http_server4cofg6configNtB5_9CofgAddrsNtNtNtCslP1BYCnN0Ot_3std3net11socket_addr13ToSocketAddrs15to_socket_addrs
FNDA:23,_RINvMs_NtNtCsgBNAdYuGUwB_14my_http_server4cofg6configNtB5_4Cofg15new_from_sourceINtNtCsaG2qCFH5KCO_6config4file4FileNtNtNtB1j_6source6string16FileSourceStringNtNtB1j_6format10FileFormatEEB9_
FNDA:12,_RNCNvMs_NtNtCsgBNAdYuGUwB_14my_http_server4cofg6configNtB6_4Cofg13get_xdg_paths0Ba_
FNDA:9,_RNvMs_NtNtCsgBNAdYuGUwB_14my_http_server4cofg6configNtB4_4Cofg11new_layered
FNDA:23,_RNvMs_NtNtCsgBNAdYuGUwB_14my_http_server4cofg6configNtB4_4Cofg12new_from_str
FNDA:12,_RNvMs_NtNtCsgBNAdYuGUwB_14my_http_server4cofg6configNtB4_4Cofg13get_xdg_paths
FNDA:9,_RNvMs_NtNtCsgBNAdYuGUwB_14my_http_server4cofg6configNtB4_4Cofg16resolve_hbs_path
FNDA:10,_RNvMs_NtNtCsgBNAdYuGUwB_14my_http_server4cofg6configNtB4_4Cofg19apply_cli_overrides
FNDA:0,_RNvMs_NtNtCsgBNAdYuGUwB_14my_http_server4cofg6configNtB4_4Cofg19get_xdg_config_path
FNDA:33,_RNvMs_NtNtCsgBNAdYuGUwB_14my_http_server4cofg6configNtB4_4Cofg28configure_default_extensions
FNDA:23,_RNvXNtNtCsgBNAdYuGUwB_14my_http_server4cofg6configNtB2_4CofgNtNtCsgS7EKHCc5jD_4core7default7Default7default
FNDA:1,_RNvXs0_NtNtCsgBNAdYuGUwB_14my_http_server4cofg6configNtB5_9CofgAddrsNtNtCsgS7EKHCc5jD_4core3fmt7Display3fmt
FNDA:1,_RNvXs1_NtNtCsgBNAdYuGUwB_14my_http_server4cofg6configNtB5_9CofgAddrsNtNtNtCslP1BYCnN0Ot_3std3net11socket_addr13ToSocketAddrs15to_socket_addrs
FNDA:0,_RNCNCNvMs_NtNtCsgBNAdYuGUwB_14my_http_server4cofg6configNtB8_4Cofg10get_global00Bc_
FNDA:0,_RNCNvMs_NtNtCsgBNAdYuGUwB_14my_http_server4cofg6configNtB6_4Cofg10get_global0Ba_
FNDA:0,_RNCNvMs_NtNtCsgBNAdYuGUwB_14my_http_server4cofg6configNtB6_4Cofg10get_globals_0Ba_
FNDA:0,_RNCNvMs_NtNtCsgBNAdYuGUwB_14my_http_server4cofg6configNtB6_4Cofg11init_global0Ba_
FNDA:0,_RNCNvMs_NtNtCsgBNAdYuGUwB_14my_http_server4cofg6configNtB6_4Cofg3get0Ba_
FNDA:0,_RNvMs_NtNtCsgBNAdYuGUwB_14my_http_server4cofg6configNtB4_4Cofg10get_global
FNDA:0,_RNvMs_NtNtCsgBNAdYuGUwB_14my_http_server4cofg6configNtB4_4Cofg11init_global
FNDA:0,_RNvMs_NtNtCsgBNAdYuGUwB_14my_http_server4cofg6configNtB4_4Cofg14load_from_disk
FNDA:0,_RNvMs_NtNtCsgBNAdYuGUwB_14my_http_server4cofg6configNtB4_4Cofg21resolve_page_404_path
FNDA:0,_RNvMs_NtNtCsgBNAdYuGUwB_14my_http_server4cofg6configNtB4_4Cofg22load_from_disk_or_init
FNDA:0,_RNvMs_NtNtCsgBNAdYuGUwB_14my_http_server4cofg6configNtB4_4Cofg3get
FNDA:0,_RNCNCNvMs_NtNtCs9ofXrUXFSdM_14my_http_server4cofg6configNtB8_4Cofg10get_global00Bc_
FNDA:0,_RNCNvMs_NtNtCs9ofXrUXFSdM_14my_http_server4cofg6configNtB6_4Cofg10get_global0Ba_
FNDA:0,_RNCNvMs_NtNtCs9ofXrUXFSdM_14my_http_server4cofg6configNtB6_4Cofg10get_globals_0Ba_
FNDA:0,_RNCNvMs_NtNtCs9ofXrUXFSdM_14my_http_server4cofg6configNtB6_4Cofg11init_global0Ba_
FNDA:0,_RNCNvMs_NtNtCs9ofXrUXFSdM_14my_http_server4cofg6configNtB6_4Cofg3get0Ba_
FNDA:0,_RNvMs_NtNtCs9ofXrUXFSdM_14my_http_server4cofg6configNtB4_4Cofg10get_global
FNDA:0,_RNvMs_NtNtCs9ofXrUXFSdM_14my_http_server4cofg6configNtB4_4Cofg11init_global
FNDA:0,_RNvMs_NtNtCs9ofXrUXFSdM_14my_http_server4cofg6configNtB4_4Cofg14load_from_disk
FNDA:0,_RNvMs_NtNtCs9ofXrUXFSdM_14my_http_server4cofg6configNtB4_4Cofg21resolve_page_404_path
FNDA:0,_RNvMs_NtNtCs9ofXrUXFSdM_14my_http_server4cofg6configNtB4_4Cofg22load_from_disk_or_init
FNDA:0,_RNvMs_NtNtCs9ofXrUXFSdM_14my_http_server4cofg6configNtB4_4Cofg3get
FNDA:9,_RNvMs_NtNtCs9ofXrUXFSdM_14my_http_server4cofg6configNtB4_4Cofg11new_layered
FNDA:23,_RNvMs_NtNtCs9ofXrUXFSdM_14my_http_server4cofg6configNtB4_4Cofg12new_from_str
FNDA:20,_RNvMs_NtNtCs9ofXrUXFSdM_14my_http_server4cofg6configNtB4_4Cofg13get_xdg_paths
FNDA:9,_RNvMs_NtNtCs9ofXrUXFSdM_14my_http_server4cofg6configNtB4_4Cofg16resolve_hbs_path
FNDA:10,_RNvMs_NtNtCs9ofXrUXFSdM_14my_http_server4cofg6configNtB4_4Cofg19apply_cli_overrides
FNDA:0,_RNvMs_NtNtCs9ofXrUXFSdM_14my_http_server4cofg6configNtB4_4Cofg19get_xdg_config_path
FNDA:33,_RNvMs_NtNtCs9ofXrUXFSdM_14my_http_server4cofg6configNtB4_4Cofg28configure_default_extensions
FNDA:23,_RNvXNtNtCs9ofXrUXFSdM_14my_http_server4cofg6configNtB2_4CofgNtNtCsgS7EKHCc5jD_4core7default7Default7default
FNDA:1,_RNvXs0_NtNtCs9ofXrUXFSdM_14my_http_server4cofg6configNtB5_9CofgAddrsNtNtCsgS7EKHCc5jD_4core3fmt7Display3fmt
FNDA:1,_RNvXs1_NtNtCs9ofXrUXFSdM_14my_http_server4cofg6configNtB5_9CofgAddrsNtNtNtCslP1BYCnN0Ot_3std3net11socket_addr13ToSocketAddrs15to_socket_addrs
FNDA:23,_RINvMs_NtNtCs9ofXrUXFSdM_14my_http_server4cofg6configNtB5_4Cofg15new_from_sourceINtNtCsaG2qCFH5KCO_6config4file4FileNtNtNtB1j_6source6string16FileSourceStringNtNtB1j_6format10FileFormatEEB9_
FNDA:20,_RNCNvMs_NtNtCs9ofXrUXFSdM_14my_http_server4cofg6configNtB6_4Cofg13get_xdg_paths0Ba_
FNDA:9,_RNvMs_NtNtCslE1WvBQdpRb_14my_http_server4cofg6configNtB4_4Cofg11new_layered
FNDA:23,_RNvMs_NtNtCslE1WvBQdpRb_14my_http_server4cofg6configNtB4_4Cofg12new_from_str
FNDA:12,_RNvMs_NtNtCslE1WvBQdpRb_14my_http_server4cofg6configNtB4_4Cofg13get_xdg_paths
FNDA:9,_RNvMs_NtNtCslE1WvBQdpRb_14my_http_server4cofg6configNtB4_4Cofg16resolve_hbs_path
FNDA:10,_RNvMs_NtNtCslE1WvBQdpRb_14my_http_server4cofg6configNtB4_4Cofg19apply_cli_overrides
FNDA:0,_RNvMs_NtNtCslE1WvBQdpRb_14my_http_server4cofg6configNtB4_4Cofg19get_xdg_config_path
FNDA:33,_RNvMs_NtNtCslE1WvBQdpRb_14my_http_server4cofg6configNtB4_4Cofg28configure_default_extensions
FNDA:23,_RNvXNtNtCslE1WvBQdpRb_14my_http_server4cofg6configNtB2_4CofgNtNtCsgS7EKHCc5jD_4core7default7Default7default
FNDA:1,_RNvXs0_NtNtCslE1WvBQdpRb_14my_http_server4cofg6configNtB5_9CofgAddrsNtNtCsgS7EKHCc5jD_4core3fmt7Display3fmt
FNDA:1,_RNvXs1_NtNtCslE1WvBQdpRb_14my_http_server4cofg6configNtB5_9CofgAddrsNtNtNtCslP1BYCnN0Ot_3std3net11socket_addr13ToSocketAddrs15to_socket_addrs
FNDA:0,_RNCNCNvMs_NtNtCslE1WvBQdpRb_14my_http_server4cofg6configNtB8_4Cofg10get_global00Bc_
FNDA:0,_RNCNvMs_NtNtCslE1WvBQdpRb_14my_http_server4cofg6configNtB6_4Cofg10get_global0Ba_
FNDA:0,_RNCNvMs_NtNtCslE1WvBQdpRb_14my_http_server4cofg6configNtB6_4Cofg10get_globals_0Ba_
FNDA:0,_RNCNvMs_NtNtCslE1WvBQdpRb_14my_http_server4cofg6configNtB6_4Cofg11init_global0Ba_
FNDA:0,_RNCNvMs_NtNtCslE1WvBQdpRb_14my_http_server4cofg6configNtB6_4Cofg3get0Ba_
FNDA:0,_RNvMs_NtNtCslE1WvBQdpRb_14my_http_server4cofg6configNtB4_4Cofg10get_global
FNDA:0,_RNvMs_NtNtCslE1WvBQdpRb_14my_http_server4cofg6configNtB4_4Cofg11init_global
FNDA:0,_RNvMs_NtNtCslE1WvBQdpRb_14my_http_server4cofg6configNtB4_4Cofg14load_from_disk
FNDA:0,_RNvMs_NtNtCslE1WvBQdpRb_14my_http_server4cofg6configNtB4_4Cofg21resolve_page_404_path
FNDA:0,_RNvMs_NtNtCslE1WvBQdpRb_14my_http_server4cofg6configNtB4_4Cofg22load_from_disk_or_init
FNDA:0,_RNvMs_NtNtCslE1WvBQdpRb_14my_http_server4cofg6configNtB4_4Cofg3get
FNDA:23,_RINvMs_NtNtCslE1WvBQdpRb_14my_http_server4cofg6configNtB5_4Cofg15new_from_sourceINtNtCsaG2qCFH5KCO_6config4file4FileNtNtNtB1j_6source6string16FileSourceStringNtNtB1j_6format10FileFormatEEB9_
FNDA:12,_RNCNvMs_NtNtCslE1WvBQdpRb_14my_http_server4cofg6configNtB6_4Cofg13get_xdg_paths0Ba_
FNF:23
FNH:11
DA:132,92
DA:133,92
DA:134,92
DA:135,0
DA:136,0
DA:137,0
DA:140,92
DA:152,64
DA:153,64
DA:154,64
DA:155,64
DA:156,64
DA:157,64
DA:158,64
DA:159,64
DA:160,64
DA:161,64
DA:162,64
DA:166,0
DA:167,0
DA:168,0
DA:181,36
DA:182,36
DA:184,36
DA:187,36
DA:188,0
DA:189,0
DA:190,0
DA:192,0
DA:193,0
DA:194,36
DA:197,36
DA:198,0
DA:199,0
DA:200,0
DA:201,0
DA:202,0
DA:204,0
DA:205,0
DA:206,36
DA:210,36
DA:211,36
DA:212,36
DA:213,36
DA:216,36
DA:217,36
DA:218,36
DA:219,36
DA:222,36
DA:224,36
DA:225,36
DA:230,40
DA:232,40
DA:233,4
DA:234,36
DA:235,40
DA:236,8
DA:237,32
DA:240,40
DA:241,4
DA:242,4
DA:243,4
DA:244,36
DA:247,40
DA:248,4
DA:249,36
DA:252,40
DA:253,0
DA:254,40
DA:255,40
DA:256,0
DA:257,40
DA:260,40
DA:261,4
DA:262,36
DA:265,40
DA:266,4
DA:267,4
DA:268,36
DA:269,40
DA:270,4
DA:271,4
DA:272,36
DA:274,40
DA:275,40
DA:287,0
DA:288,0
DA:291,0
DA:292,0
DA:293,0
DA:296,0
DA:297,0
DA:299,0
DA:300,0
DA:301,0
DA:304,0
DA:305,0
DA:317,36
DA:318,36
DA:321,36
DA:322,32
DA:323,4
DA:326,4
DA:327,4
DA:329,0
DA:330,0
DA:331,0
DA:333,0
DA:334,4
DA:337,4
DA:338,36
DA:341,0
DA:342,0
DA:343,0
DA:346,0
DA:347,0
DA:348,0
DA:349,0
DA:350,0
DA:351,0
DA:352,0
DA:353,0
DA:354,0
DA:358,92
DA:359,92
DA:360,92
DA:362,92
DA:363,92
DA:364,92
DA:365,92
DA:366,92
DA:367,92
DA:370,92
DA:371,92
DA:372,92
DA:374,132
DA:377,132
DA:378,132
DA:379,128
DA:380,128
DA:381,128
DA:382,128
DA:383,128
DA:384,128
DA:385,128
DA:386,132
DA:387,128
DA:388,128
DA:389,128
DA:390,128
DA:391,128
DA:393,132
DA:394,132
DA:397,0
DA:398,0
DA:399,0
DA:400,0
DA:401,0
DA:402,0
DA:410,0
DA:411,0
DA:412,0
DA:413,0
DA:414,0
DA:415,0
DA:416,0
DA:417,0
DA:418,0
DA:419,0
DA:420,0
DA:421,0
DA:424,0
DA:425,0
DA:427,0
DA:428,0
DA:429,0
DA:430,0
DA:431,0
DA:433,0
DA:435,0
DA:436,0
DA:437,0
DA:439,0
DA:440,0
DA:442,0
DA:443,0
DA:444,0
DA:446,0
DA:447,0
DA:454,0
DA:455,0
DA:457,0
DA:458,0
DA:459,0
DA:460,0
DA:461,0
DA:462,0
DA:465,0
DA:466,0
DA:467,0
DA:468,0
DA:470,0
DA:471,0
DA:476,4
DA:477,4
DA:478,4
DA:485,4
DA:486,4
DA:487,4
BRF:0
BRH:0
LF:215
LH:112
end_of_record
SF:C:\Users\pl816\OneDrive\文件\git\my-http-server\src\error.rs
FN:40,_RNvXNtCsJUKjIpJSKG_14my_http_server5errorNtB2_8AppErrorINtNtCsgS7EKHCc5jD_4core7convert4FromINtNtCs1S013FBku8r_5alloc5boxed3BoxDNtNtBW_5error5ErrorEL_EE4from
FN:55,_RNvXs0_NtCsJUKjIpJSKG_14my_http_server5errorNtB5_8AppErrorNtNtNtCshOI2ER98jHf_9actix_web5error14response_error13ResponseError11status_code
FN:76,_RNvXs0_NtCsJUKjIpJSKG_14my_http_server5errorNtB5_8AppErrorNtNtNtCshOI2ER98jHf_9actix_web5error14response_error13ResponseError14error_response
FN:89,_RNvXs1_NtCsJUKjIpJSKG_14my_http_server5errorNtB5_8AppErrorINtNtCsgS7EKHCc5jD_4core7convert4FromINtNtCsimTMWAzcqQk_3nom8internal3ErrINtNtB1A_5error5ErrorReEEE4from
FN:48,_RNvXs_NtCsJUKjIpJSKG_14my_http_server5errorNtB4_8AppErrorNtNtNtCshOI2ER98jHf_9actix_web8response9responder9Responder10respond_to
FN:55,_RNvXs0_NtCsgBNAdYuGUwB_14my_http_server5errorNtB5_8AppErrorNtNtNtCshOI2ER98jHf_9actix_web5error14response_error13ResponseError11status_code
FN:76,_RNvXs0_NtCsgBNAdYuGUwB_14my_http_server5errorNtB5_8AppErrorNtNtNtCshOI2ER98jHf_9actix_web5error14response_error13ResponseError14error_response
FN:89,_RNvXs1_NtCsgBNAdYuGUwB_14my_http_server5errorNtB5_8AppErrorINtNtCsgS7EKHCc5jD_4core7convert4FromINtNtCsimTMWAzcqQk_3nom8internal3ErrINtNtB1B_5error5ErrorReEEE4from
FN:48,_RNvXs_NtCsgBNAdYuGUwB_14my_http_server5errorNtB4_8AppErrorNtNtNtCshOI2ER98jHf_9actix_web8response9responder9Responder10respond_to
FN:40,_RNvXNtCsgBNAdYuGUwB_14my_http_server5errorNtB2_8AppErrorINtNtCsgS7EKHCc5jD_4core7convert4FromINtNtCs1S013FBku8r_5alloc5boxed3BoxDNtNtBX_5error5ErrorEL_EE4from
FN:40,_RNvXNtCs9ofXrUXFSdM_14my_http_server5errorNtB2_8AppErrorINtNtCsgS7EKHCc5jD_4core7convert4FromINtNtCs1S013FBku8r_5alloc5boxed3BoxDNtNtBX_5error5ErrorEL_EE4from
FN:55,_RNvXs0_NtCs9ofXrUXFSdM_14my_http_server5errorNtB5_8AppErrorNtNtNtCs2w4TRgjrzQ8_9actix_web5error14response_error13ResponseError11status_code
FN:76,_RNvXs0_NtCs9ofXrUXFSdM_14my_http_server5errorNtB5_8AppErrorNtNtNtCs2w4TRgjrzQ8_9actix_web5error14response_error13ResponseError14error_response
FN:89,_RNvXs1_NtCs9ofXrUXFSdM_14my_http_server5errorNtB5_8AppErrorINtNtCsgS7EKHCc5jD_4core7convert4FromINtNtCsimTMWAzcqQk_3nom8internal3ErrINtNtB1B_5error5ErrorReEEE4from
FN:48,_RNvXs_NtCs9ofXrUXFSdM_14my_http_server5errorNtB4_8AppErrorNtNtNtCs2w4TRgjrzQ8_9actix_web8response9responder9Responder10respond_to
FN:40,_RNvXNtCslE1WvBQdpRb_14my_http_server5errorNtB2_8AppErrorINtNtCsgS7EKHCc5jD_4core7convert4FromINtNtCs1S013FBku8r_5alloc5boxed3BoxDNtNtBX_5error5ErrorEL_EE4from
FN:55,_RNvXs0_NtCslE1WvBQdpRb_14my_http_server5errorNtB5_8AppErrorNtNtNtCs2w4TRgjrzQ8_9actix_web5error14response_error13ResponseError11status_code
FN:76,_RNvXs0_NtCslE1WvBQdpRb_14my_http_server5errorNtB5_8AppErrorNtNtNtCs2w4TRgjrzQ8_9actix_web5error14response_error13ResponseError14error_response
FN:89,_RNvXs1_NtCslE1WvBQdpRb_14my_http_server5errorNtB5_8AppErrorINtNtCsgS7EKHCc5jD_4core7convert4FromINtNtCsimTMWAzcqQk_3nom8internal3ErrINtNtB1B_5error5ErrorReEEE4from
FN:48,_RNvXs_NtCslE1WvBQdpRb_14my_http_server5errorNtB4_8AppErrorNtNtNtCs2w4TRgjrzQ8_9actix_web8response9responder9Responder10respond_to
FNDA:0,_RNvXNtCsJUKjIpJSKG_14my_http_server5errorNtB2_8AppErrorINtNtCsgS7EKHCc5jD_4core7convert4FromINtNtCs1S013FBku8r_5alloc5boxed3BoxDNtNtBW_5error5ErrorEL_EE4from
FNDA:2,_RNvXs0_NtCsJUKjIpJSKG_14my_http_server5errorNtB5_8AppErrorNtNtNtCshOI2ER98jHf_9actix_web5error14response_error13ResponseError11status_code
FNDA:2,_RNvXs0_NtCsJUKjIpJSKG_14my_http_server5errorNtB5_8AppErrorNtNtNtCshOI2ER98jHf_9actix_web5error14response_error13ResponseError14error_response
FNDA:1,_RNvXs1_NtCsJUKjIpJSKG_14my_http_server5errorNtB5_8AppErrorINtNtCsgS7EKHCc5jD_4core7convert4FromINtNtCsimTMWAzcqQk_3nom8internal3ErrINtNtB1A_5error5ErrorReEEE4from
FNDA:2,_RNvXs_NtCsJUKjIpJSKG_14my_http_server5errorNtB4_8AppErrorNtNtNtCshOI2ER98jHf_9actix_web8response9responder9Responder10respond_to
FNDA:2,_RNvXs0_NtCsgBNAdYuGUwB_14my_http_server5errorNtB5_8AppErrorNtNtNtCshOI2ER98jHf_9actix_web5error14response_error13ResponseError11status_code
FNDA:2,_RNvXs0_NtCsgBNAdYuGUwB_14my_http_server5errorNtB5_8AppErrorNtNtNtCshOI2ER98jHf_9actix_web5error14response_error13ResponseError14error_response
FNDA:1,_RNvXs1_NtCsgBNAdYuGUwB_14my_http_server5errorNtB5_8AppErrorINtNtCsgS7EKHCc5jD_4core7convert4FromINtNtCsimTMWAzcqQk_3nom8internal3ErrINtNtB1B_5error5ErrorReEEE4from
FNDA:2,_RNvXs_NtCsgBNAdYuGUwB_14my_http_server5errorNtB4_8AppErrorNtNtNtCshOI2ER98jHf_9actix_web8response9responder9Responder10respond_to
FNDA:0,_RNvXNtCsgBNAdYuGUwB_14my_http_server5errorNtB2_8AppErrorINtNtCsgS7EKHCc5jD_4core7convert4FromINtNtCs1S013FBku8r_5alloc5boxed3BoxDNtNtBX_5error5ErrorEL_EE4from
FNDA:0,_RNvXNtCs9ofXrUXFSdM_14my_http_server5errorNtB2_8AppErrorINtNtCsgS7EKHCc5jD_4core7convert4FromINtNtCs1S013FBku8r_5alloc5boxed3BoxDNtNtBX_5error5ErrorEL_EE4from
FNDA:2,_RNvXs0_NtCs9ofXrUXFSdM_14my_http_server5errorNtB5_8AppErrorNtNtNtCs2w4TRgjrzQ8_9actix_web5error14response_error13ResponseError11status_code
FNDA:2,_RNvXs0_NtCs9ofXrUXFSdM_14my_http_server5errorNtB5_8AppErrorNtNtNtCs2w4TRgjrzQ8_9actix_web5error14response_error13ResponseError14error_response
FNDA:1,_RNvXs1_NtCs9ofXrUXFSdM_14my_http_server5errorNtB5_8AppErrorINtNtCsgS7EKHCc5jD_4core7convert4FromINtNtCsimTMWAzcqQk_3nom8internal3ErrINtNtB1B_5error5ErrorReEEE4from
FNDA:2,_RNvXs_NtCs9ofXrUXFSdM_14my_http_server5errorNtB4_8AppErrorNtNtNtCs2w4TRgjrzQ8_9actix_web8response9responder9Responder10respond_to
FNDA:0,_RNvXNtCslE1WvBQdpRb_14my_http_server5errorNtB2_8AppErrorINtNtCsgS7EKHCc5jD_4core7convert4FromINtNtCs1S013FBku8r_5alloc5boxed3BoxDNtNtBX_5error5ErrorEL_EE4from
FNDA:2,_RNvXs0_NtCslE1WvBQdpRb_14my_http_server5errorNtB5_8AppErrorNtNtNtCs2w4TRgjrzQ8_9actix_web5error14response_error13ResponseError11status_code
FNDA:2,_RNvXs0_NtCslE1WvBQdpRb_14my_http_server5errorNtB5_8AppErrorNtNtNtCs2w4TRgjrzQ8_9actix_web5error14response_error13ResponseError14error_response
FNDA:1,_RNvXs1_NtCslE1WvBQdpRb_14my_http_server5errorNtB5_8AppErrorINtNtCsgS7EKHCc5jD_4core7convert4FromINtNtCsimTMWAzcqQk_3nom8internal3ErrINtNtB1B_5error5ErrorReEEE4from
FNDA:2,_RNvXs_NtCslE1WvBQdpRb_14my_http_server5errorNtB4_8AppErrorNtNtNtCs2w4TRgjrzQ8_9actix_web8response9responder9Responder10respond_to
FNF:5
FNH:4
DA:40,0
DA:41,0
DA:42,0
DA:48,8
DA:50,8
DA:51,8
DA:55,8
DA:56,8
DA:57,0
DA:58,0
DA:59,0
DA:60,0
DA:61,0
DA:72,8
DA:74,8
DA:76,8
DA:77,8
DA:80,8
DA:82,8
DA:83,8
DA:84,8
DA:85,8
DA:89,4
DA:90,4
DA:91,4
BRF:0
BRH:0
LF:25
LH:17
end_of_record
SF:C:\Users\pl816\OneDrive\文件\git\my-http-server\src\main.rs
FN:334,_RNCNCNCNCNvCsJUKjIpJSKG_14my_http_server12build_server0s0_000B9_
FN:346,_RNCNCNCNCNvCsJUKjIpJSKG_14my_http_server12build_server0s0_00s0_0B9_
FN:340,_RNCNCNCNCNvCsJUKjIpJSKG_14my_http_server12build_server0s0_00s_0B9_
FN:328,_RNCNCNCNvCsJUKjIpJSKG_14my_http_server12build_server0s0_00B7_
FN:284,_RNCNCNvCsJUKjIpJSKG_14my_http_server12build_server00B5_
FN:326,_RNCNCNvCsJUKjIpJSKG_14my_http_server12build_server0s0_0B5_
FN:395,_RNCNCNvCsJUKjIpJSKG_14my_http_server12build_server0s1_0B5_
FN:402,_RNCNCNvCsJUKjIpJSKG_14my_http_server12build_server0s2_0B5_
FN:406,_RNCNCNvCsJUKjIpJSKG_14my_http_server12build_server0s3_0B5_
FN:409,_RNCNCNvCsJUKjIpJSKG_14my_http_server12build_server0s4_0B5_
FN:294,_RNCNCNvCsJUKjIpJSKG_14my_http_server12build_server0s_0B5_
FN:464,_RNCNCNvCsJUKjIpJSKG_14my_http_server4main00B5_
FN:477,_RNCNCNvCsJUKjIpJSKG_14my_http_server4main0s_0B5_
FN:275,_RNCNvCsJUKjIpJSKG_14my_http_server12build_server0B3_
FN:243,_RNCNvCsJUKjIpJSKG_14my_http_server15load_tls_config0B3_
FN:254,_RNCNvCsJUKjIpJSKG_14my_http_server15load_tls_configs0_0B3_
FN:247,_RNCNvCsJUKjIpJSKG_14my_http_server15load_tls_configs_0B3_
FN:192,_RNvCsJUKjIpJSKG_14my_http_server11logger_init
FN:263,_RNvCsJUKjIpJSKG_14my_http_server12build_server
FN:230,_RNvCsJUKjIpJSKG_14my_http_server15load_tls_config
FN:75,_RNvCsJUKjIpJSKG_14my_http_server4init
FN:54,_RNvMs_CsJUKjIpJSKG_14my_http_serverNtB4_7Version3new
FN:36,_RNvXCsJUKjIpJSKG_14my_http_serverNtB2_7VersionNtNtCsgS7EKHCc5jD_4core3fmt7Display3fmt
FN:66,_RNvXs0_CsJUKjIpJSKG_14my_http_serverNtB5_7VersionNtNtCsgS7EKHCc5jD_4core7default7Default7default
FN:107,_RNvCsJUKjIpJSKG_14my_http_server11emojis_init
FN:219,_RNvCsJUKjIpJSKG_14my_http_server13ct_eq_str_opt
FN:207,_RNvCsJUKjIpJSKG_14my_http_server16constant_time_eq
FN:146,_RNCNCNvCsJUKjIpJSKG_14my_http_server11emojis_init00B5_
FN:144,_RNCNvCsJUKjIpJSKG_14my_http_server11emojis_init0B3_
FN:185,_RNCNvCsJUKjIpJSKG_14my_http_server11emojis_inits0_0B3_
FN:177,_RNCNvCsJUKjIpJSKG_14my_http_server11emojis_inits_0B3_
FN:334,_RNCNCNCNCNvCsgBNAdYuGUwB_14my_http_server12build_server0s0_000B9_
FN:346,_RNCNCNCNCNvCsgBNAdYuGUwB_14my_http_server12build_server0s0_00s0_0B9_
FN:340,_RNCNCNCNCNvCsgBNAdYuGUwB_14my_http_server12build_server0s0_00s_0B9_
FN:328,_RNCNCNCNvCsgBNAdYuGUwB_14my_http_server12build_server0s0_00B7_
FN:284,_RNCNCNvCsgBNAdYuGUwB_14my_http_server12build_server00B5_
FN:326,_RNCNCNvCsgBNAdYuGUwB_14my_http_server12build_server0s0_0B5_
FN:395,_RNCNCNvCsgBNAdYuGUwB_14my_http_server12build_server0s1_0B5_
FN:402,_RNCNCNvCsgBNAdYuGUwB_14my_http_server12build_server0s2_0B5_
FN:406,_RNCNCNvCsgBNAdYuGUwB_14my_http_server12build_server0s3_0B5_
FN:409,_RNCNCNvCsgBNAdYuGUwB_14my_http_server12build_server0s4_0B5_
FN:294,_RNCNCNvCsgBNAdYuGUwB_14my_http_server12build_server0s_0B5_
FN:464,_RNCNCNvCsgBNAdYuGUwB_14my_http_server4main00B5_
FN:477,_RNCNCNvCsgBNAdYuGUwB_14my_http_server4main0s_0B5_
FN:275,_RNCNvCsgBNAdYuGUwB_14my_http_server12build_server0B3_
FN:243,_RNCNvCsgBNAdYuGUwB_14my_http_server15load_tls_config0B3_
FN:254,_RNCNvCsgBNAdYuGUwB_14my_http_server15load_tls_configs0_0B3_
FN:247,_RNCNvCsgBNAdYuGUwB_14my_http_server15load_tls_configs_0B3_
FN:192,_RNvCsgBNAdYuGUwB_14my_http_server11logger_init
FN:263,_RNvCsgBNAdYuGUwB_14my_http_server12build_server
FN:230,_RNvCsgBNAdYuGUwB_14my_http_server15load_tls_config
FN:75,_RNvCsgBNAdYuGUwB_14my_http_server4init
FN:54,_RNvMs_CsgBNAdYuGUwB_14my_http_serverNtB4_7Version3new
FN:36,_RNvXCsgBNAdYuGUwB_14my_http_serverNtB2_7VersionNtNtCsgS7EKHCc5jD_4core3fmt7Display3fmt
FN:66,_RNvXs0_CsgBNAdYuGUwB_14my_http_serverNtB5_7VersionNtNtCsgS7EKHCc5jD_4core7default7Default7default
FN:219,_RNvCsgBNAdYuGUwB_14my_http_server13ct_eq_str_opt
FN:207,_RNvCsgBNAdYuGUwB_14my_http_server16constant_time_eq
FN:334,_RNCNCNCNCNvCs9ofXrUXFSdM_14my_http_server12build_server0s0_000B9_
FN:346,_RNCNCNCNCNvCs9ofXrUXFSdM_14my_http_server12build_server0s0_00s0_0B9_
FN:340,_RNCNCNCNCNvCs9ofXrUXFSdM_14my_http_server12build_server0s0_00s_0B9_
FN:328,_RNCNCNCNvCs9ofXrUXFSdM_14my_http_server12build_server0s0_00B7_
FN:284,_RNCNCNvCs9ofXrUXFSdM_14my_http_server12build_server00B5_
FN:326,_RNCNCNvCs9ofXrUXFSdM_14my_http_server12build_server0s0_0B5_
FN:395,_RNCNCNvCs9ofXrUXFSdM_14my_http_server12build_server0s1_0B5_
FN:402,_RNCNCNvCs9ofXrUXFSdM_14my_http_server12build_server0s2_0B5_
FN:406,_RNCNCNvCs9ofXrUXFSdM_14my_http_server12build_server0s3_0B5_
FN:409,_RNCNCNvCs9ofXrUXFSdM_14my_http_server12build_server0s4_0B5_
FN:294,_RNCNCNvCs9ofXrUXFSdM_14my_http_server12build_server0s_0B5_
FN:464,_RNCNCNvCs9ofXrUXFSdM_14my_http_server4main00B5_
FN:477,_RNCNCNvCs9ofXrUXFSdM_14my_http_server4main0s_0B5_
FN:275,_RNCNvCs9ofXrUXFSdM_14my_http_server12build_server0B3_
FN:243,_RNCNvCs9ofXrUXFSdM_14my_http_server15load_tls_config0B3_
FN:254,_RNCNvCs9ofXrUXFSdM_14my_http_server15load_tls_configs0_0B3_
FN:247,_RNCNvCs9ofXrUXFSdM_14my_http_server15load_tls_configs_0B3_
FN:192,_RNvCs9ofXrUXFSdM_14my_http_server11logger_init
FN:263,_RNvCs9ofXrUXFSdM_14my_http_server12build_server
FN:230,_RNvCs9ofXrUXFSdM_14my_http_server15load_tls_config
FN:75,_RNvCs9ofXrUXFSdM_14my_http_server4init
FN:54,_RNvMs_Cs9ofXrUXFSdM_14my_http_serverNtB4_7Version3new
FN:36,_RNvXCs9ofXrUXFSdM_14my_http_serverNtB2_7VersionNtNtCsgS7EKHCc5jD_4core3fmt7Display3fmt
FN:66,_RNvXs0_Cs9ofXrUXFSdM_14my_http_serverNtB5_7VersionNtNtCsgS7EKHCc5jD_4core7default7Default7default
FN:107,_RNvCs9ofXrUXFSdM_14my_http_server11emojis_init
FN:219,_RNvCs9ofXrUXFSdM_14my_http_server13ct_eq_str_opt
FN:207,_RNvCs9ofXrUXFSdM_14my_http_server16constant_time_eq
FN:146,_RNCNCNvCs9ofXrUXFSdM_14my_http_server11emojis_init00B5_
FN:144,_RNCNvCs9ofXrUXFSdM_14my_http_server11emojis_init0B3_
FN:185,_RNCNvCs9ofXrUXFSdM_14my_http_server11emojis_inits0_0B3_
FN:177,_RNCNvCs9ofXrUXFSdM_14my_http_server11emojis_inits_0B3_
FN:334,_RNCNCNCNCNvCslE1WvBQdpRb_14my_http_server12build_server0s0_000B9_
FN:346,_RNCNCNCNCNvCslE1WvBQdpRb_14my_http_server12build_server0s0_00s0_0B9_
FN:340,_RNCNCNCNCNvCslE1WvBQdpRb_14my_http_server12build_server0s0_00s_0B9_
FN:328,_RNCNCNCNvCslE1WvBQdpRb_14my_http_server12build_server0s0_00B7_
FN:284,_RNCNCNvCslE1WvBQdpRb_14my_http_server12build_server00B5_
FN:326,_RNCNCNvCslE1WvBQdpRb_14my_http_server12build_server0s0_0B5_
FN:395,_RNCNCNvCslE1WvBQdpRb_14my_http_server12build_server0s1_0B5_
FN:402,_RNCNCNvCslE1WvBQdpRb_14my_http_server12build_server0s2_0B5_
FN:406,_RNCNCNvCslE1WvBQdpRb_14my_http_server12build_server0s3_0B5_
FN:409,_RNCNCNvCslE1WvBQdpRb_14my_http_server12build_server0s4_0B5_
FN:294,_RNCNCNvCslE1WvBQdpRb_14my_http_server12build_server0s_0B5_
FN:464,_RNCNCNvCslE1WvBQdpRb_14my_http_server4main00B5_
FN:477,_RNCNCNvCslE1WvBQdpRb_14my_http_server4main0s_0B5_
FN:275,_RNCNvCslE1WvBQdpRb_14my_http_server12build_server0B3_
FN:243,_RNCNvCslE1WvBQdpRb_14my_http_server15load_tls_config0B3_
FN:254,_RNCNvCslE1WvBQdpRb_14my_http_server15load_tls_configs0_0B3_
FN:247,_RNCNvCslE1WvBQdpRb_14my_http_server15load_tls_configs_0B3_
FN:192,_RNvCslE1WvBQdpRb_14my_http_server11logger_init
FN:263,_RNvCslE1WvBQdpRb_14my_http_server12build_server
FN:230,_RNvCslE1WvBQdpRb_14my_http_server15load_tls_config
FN:75,_RNvCslE1WvBQdpRb_14my_http_server4init
FN:54,_RNvMs_CslE1WvBQdpRb_14my_http_serverNtB4_7Version3new
FN:36,_RNvXCslE1WvBQdpRb_14my_http_serverNtB2_7VersionNtNtCsgS7EKHCc5jD_4core3fmt7Display3fmt
FN:66,_RNvXs0_CslE1WvBQdpRb_14my_http_serverNtB5_7VersionNtNtCsgS7EKHCc5jD_4core7default7Default7default
FN:219,_RNvCslE1WvBQdpRb_14my_http_server13ct_eq_str_opt
FN:207,_RNvCslE1WvBQdpRb_14my_http_server16constant_time_eq
FNDA:0,_RNCNCNCNCNvCsJUKjIpJSKG_14my_http_server12build_server0s0_000B9_
FNDA:0,_RNCNCNCNCNvCsJUKjIpJSKG_14my_http_server12build_server0s0_00s0_0B9_
FNDA:0,_RNCNCNCNCNvCsJUKjIpJSKG_14my_http_server12build_server0s0_00s_0B9_
FNDA:0,_RNCNCNCNvCsJUKjIpJSKG_14my_http_server12build_server0s0_00B7_
FNDA:0,_RNCNCNvCsJUKjIpJSKG_14my_http_server12build_server00B5_
FNDA:0,_RNCNCNvCsJUKjIpJSKG_14my_http_server12build_server0s0_0B5_
FNDA:0,_RNCNCNvCsJUKjIpJSKG_14my_http_server12build_server0s1_0B5_
FNDA:0,_RNCNCNvCsJUKjIpJSKG_14my_http_server12build_server0s2_0B5_
FNDA:0,_RNCNCNvCsJUKjIpJSKG_14my_http_server12build_server0s3_0B5_
FNDA:0,_RNCNCNvCsJUKjIpJSKG_14my_http_server12build_server0s4_0B5_
FNDA:0,_RNCNCNvCsJUKjIpJSKG_14my_http_server12build_server0s_0B5_
FNDA:0,_RNCNCNvCsJUKjIpJSKG_14my_http_server4main00B5_
FNDA:0,_RNCNCNvCsJUKjIpJSKG_14my_http_server4main0s_0B5_
FNDA:0,_RNCNvCsJUKjIpJSKG_14my_http_server12build_server0B3_
FNDA:0,_RNCNvCsJUKjIpJSKG_14my_http_server15load_tls_config0B3_
FNDA:0,_RNCNvCsJUKjIpJSKG_14my_http_server15load_tls_configs0_0B3_
FNDA:0,_RNCNvCsJUKjIpJSKG_14my_http_server15load_tls_configs_0B3_
FNDA:0,_RNvCsJUKjIpJSKG_14my_http_server11logger_init
FNDA:0,_RNvCsJUKjIpJSKG_14my_http_server12build_server
FNDA:0,_RNvCsJUKjIpJSKG_14my_http_server15load_tls_config
FNDA:0,_RNvCsJUKjIpJSKG_14my_http_server4init
FNDA:0,_RNvMs_CsJUKjIpJSKG_14my_http_serverNtB4_7Version3new
FNDA:0,_RNvXCsJUKjIpJSKG_14my_http_serverNtB2_7VersionNtNtCsgS7EKHCc5jD_4core3fmt7Display3fmt
FNDA:0,_RNvXs0_CsJUKjIpJSKG_14my_http_serverNtB5_7VersionNtNtCsgS7EKHCc5jD_4core7default7Default7default
FNDA:8,_RNvCsJUKjIpJSKG_14my_http_server11emojis_init
FNDA:10,_RNvCsJUKjIpJSKG_14my_http_server13ct_eq_str_opt
FNDA:20,_RNvCsJUKjIpJSKG_14my_http_server16constant_time_eq
FNDA:0,_RNCNCNvCsJUKjIpJSKG_14my_http_server11emojis_init00B5_
FNDA:0,_RNCNvCsJUKjIpJSKG_14my_http_server11emojis_init0B3_
FNDA:0,_RNCNvCsJUKjIpJSKG_14my_http_server11emojis_inits0_0B3_
FNDA:0,_RNCNvCsJUKjIpJSKG_14my_http_server11emojis_inits_0B3_
FNDA:0,_RNCNCNCNCNvCsgBNAdYuGUwB_14my_http_server12build_server0s0_000B9_
FNDA:0,_RNCNCNCNCNvCsgBNAdYuGUwB_14my_http_server12build_server0s0_00s0_0B9_
FNDA:0,_RNCNCNCNCNvCsgBNAdYuGUwB_14my_http_server12build_server0s0_00s_0B9_
FNDA:0,_RNCNCNCNvCsgBNAdYuGUwB_14my_http_server12build_server0s0_00B7_
FNDA:0,_RNCNCNvCsgBNAdYuGUwB_14my_http_server12build_server00B5_
FNDA:0,_RNCNCNvCsgBNAdYuGUwB_14my_http_server12build_server0s0_0B5_
FNDA:0,_RNCNCNvCsgBNAdYuGUwB_14my_http_server12build_server0s1_0B5_
FNDA:0,_RNCNCNvCsgBNAdYuGUwB_14my_http_server12build_server0s2_0B5_
FNDA:0,_RNCNCNvCsgBNAdYuGUwB_14my_http_server12build_server0s3_0B5_
FNDA:0,_RNCNCNvCsgBNAdYuGUwB_14my_http_server12build_server0s4_0B5_
FNDA:0,_RNCNCNvCsgBNAdYuGUwB_14my_http_server12build_server0s_0B5_
FNDA:0,_RNCNCNvCsgBNAdYuGUwB_14my_http_server4main00B5_
FNDA:0,_RNCNCNvCsgBNAdYuGUwB_14my_http_server4main0s_0B5_
FNDA:0,_RNCNvCsgBNAdYuGUwB_14my_http_server12build_server0B3_
FNDA:0,_RNCNvCsgBNAdYuGUwB_14my_http_server15load_tls_config0B3_
FNDA:0,_RNCNvCsgBNAdYuGUwB_14my_http_server15load_tls_configs0_0B3_
FNDA:0,_RNCNvCsgBNAdYuGUwB_14my_http_server15load_tls_configs_0B3_
FNDA:0,_RNvCsgBNAdYuGUwB_14my_http_server11logger_init
FNDA:0,_RNvCsgBNAdYuGUwB_14my_http_server12build_server
FNDA:0,_RNvCsgBNAdYuGUwB_14my_http_server15load_tls_config
FNDA:0,_RNvCsgBNAdYuGUwB_14my_http_server4init
FNDA:0,_RNvMs_CsgBNAdYuGUwB_14my_http_serverNtB4_7Version3new
FNDA:0,_RNvXCsgBNAdYuGUwB_14my_http_serverNtB2_7VersionNtNtCsgS7EKHCc5jD_4core3fmt7Display3fmt
FNDA:0,_RNvXs0_CsgBNAdYuGUwB_14my_http_serverNtB5_7VersionNtNtCsgS7EKHCc5jD_4core7default7Default7default
FNDA:10,_RNvCsgBNAdYuGUwB_14my_http_server13ct_eq_str_opt
FNDA:20,_RNvCsgBNAdYuGUwB_14my_http_server16constant_time_eq
FNDA:0,_RNCNCNCNCNvCs9ofXrUXFSdM_14my_http_server12build_server0s0_000B9_
FNDA:0,_RNCNCNCNCNvCs9ofXrUXFSdM_14my_http_server12build_server0s0_00s0_0B9_
FNDA:0,_RNCNCNCNCNvCs9ofXrUXFSdM_14my_http_server12build_server0s0_00s_0B9_
FNDA:0,_RNCNCNCNvCs9ofXrUXFSdM_14my_http_server12build_server0s0_00B7_
FNDA:0,_RNCNCNvCs9ofXrUXFSdM_14my_http_server12build_server00B5_
FNDA:0,_RNCNCNvCs9ofXrUXFSdM_14my_http_server12build_server0s0_0B5_
FNDA:0,_RNCNCNvCs9ofXrUXFSdM_14my_http_server12build_server0s1_0B5_
FNDA:0,_RNCNCNvCs9ofXrUXFSdM_14my_http_server12build_server0s2_0B5_
FNDA:0,_RNCNCNvCs9ofXrUXFSdM_14my_http_server12build_server0s3_0B5_
FNDA:0,_RNCNCNvCs9ofXrUXFSdM_14my_http_server12build_server0s4_0B5_
FNDA:0,_RNCNCNvCs9ofXrUXFSdM_14my_http_server12build_server0s_0B5_
FNDA:0,_RNCNCNvCs9ofXrUXFSdM_14my_http_server4main00B5_
FNDA:0,_RNCNCNvCs9ofXrUXFSdM_14my_http_server4main0s_0B5_
FNDA:0,_RNCNvCs9ofXrUXFSdM_14my_http_server12build_server0B3_
FNDA:0,_RNCNvCs9ofXrUXFSdM_14my_http_server15load_tls_config0B3_
FNDA:0,_RNCNvCs9ofXrUXFSdM_14my_http_server15load_tls_configs0_0B3_
FNDA:0,_RNCNvCs9ofXrUXFSdM_14my_http_server15load_tls_configs_0B3_
FNDA:0,_RNvCs9ofXrUXFSdM_14my_http_server11logger_init
FNDA:0,_RNvCs9ofXrUXFSdM_14my_http_server12build_server
FNDA:0,_RNvCs9ofXrUXFSdM_14my_http_server15load_tls_config
FNDA:0,_RNvCs9ofXrUXFSdM_14my_http_server4init
FNDA:0,_RNvMs_Cs9ofXrUXFSdM_14my_http_serverNtB4_7Version3new
FNDA:0,_RNvXCs9ofXrUXFSdM_14my_http_serverNtB2_7VersionNtNtCsgS7EKHCc5jD_4core3fmt7Display3fmt
FNDA:0,_RNvXs0_Cs9ofXrUXFSdM_14my_http_serverNtB5_7VersionNtNtCsgS7EKHCc5jD_4core7default7Default7default
FNDA:8,_RNvCs9ofXrUXFSdM_14my_http_server11emojis_init
FNDA:10,_RNvCs9ofXrUXFSdM_14my_http_server13ct_eq_str_opt
FNDA:20,_RNvCs9ofXrUXFSdM_14my_http_server16constant_time_eq
FNDA:0,_RNCNCNvCs9ofXrUXFSdM_14my_http_server11emojis_init00B5_
FNDA:0,_RNCNvCs9ofXrUXFSdM_14my_http_server11emojis_init0B3_
FNDA:0,_RNCNvCs9ofXrUXFSdM_14my_http_server11emojis_inits0_0B3_
FNDA:0,_RNCNvCs9ofXrUXFSdM_14my_http_server11emojis_inits_0B3_
FNDA:0,_RNCNCNCNCNvCslE1WvBQdpRb_14my_http_server12build_server0s0_000B9_
FNDA:0,_RNCNCNCNCNvCslE1WvBQdpRb_14my_http_server12build_server0s0_00s0_0B9_
FNDA:0,_RNCNCNCNCNvCslE1WvBQdpRb_14my_http_server12build_server0s0_00s_0B9_
FNDA:0,_RNCNCNCNvCslE1WvBQdpRb_14my_http_server12build_server0s0_00B7_
FNDA:0,_RNCNCNvCslE1WvBQdpRb_14my_http_server12build_server00B5_
FNDA:0,_RNCNCNvCslE1WvBQdpRb_14my_http_server12build_server0s0_0B5_
FNDA:0,_RNCNCNvCslE1WvBQdpRb_14my_http_server12build_server0s1_0B5_
FNDA:0,_RNCNCNvCslE1WvBQdpRb_14my_http_server12build_server0s2_0B5_
FNDA:0,_RNCNCNvCslE1WvBQdpRb_14my_http_server12build_server0s3_0B5_
FNDA:0,_RNCNCNvCslE1WvBQdpRb_14my_http_server12build_server0s4_0B5_
FNDA:0,_RNCNCNvCslE1WvBQdpRb_14my_http_server12build_server0s_0B5_
FNDA:0,_RNCNCNvCslE1WvBQdpRb_14my_http_server4main00B5_
FNDA:0,_RNCNCNvCslE1WvBQdpRb_14my_http_server4main0s_0B5_
FNDA:0,_RNCNvCslE1WvBQdpRb_14my_http_server12build_server0B3_
FNDA:0,_RNCNvCslE1WvBQdpRb_14my_http_server15load_tls_config0B3_
FNDA:0,_RNCNvCslE1WvBQdpRb_14my_http_server15load_tls_configs0_0B3_
FNDA:0,_RNCNvCslE1WvBQdpRb_14my_http_server15load_tls_configs_0B3_
FNDA:0,_RNvCslE1WvBQdpRb_14my_http_server11logger_init
FNDA:0,_RNvCslE1WvBQdpRb_14my_http_server12build_server
FNDA:0,_RNvCslE1WvBQdpRb_14my_http_server15load_tls_config
FNDA:0,_RNvCslE1WvBQdpRb_14my_http_server4init
FNDA:0,_RNvMs_CslE1WvBQdpRb_14my_http_serverNtB4_7Version3new
FNDA:0,_RNvXCslE1WvBQdpRb_14my_http_serverNtB2_7VersionNtNtCsgS7EKHCc5jD_4core3fmt7Display3fmt
FNDA:0,_RNvXs0_CslE1WvBQdpRb_14my_http_serverNtB5_7VersionNtNtCsgS7EKHCc5jD_4core7default7Default7default
FNDA:10,_RNvCslE1WvBQdpRb_14my_http_server13ct_eq_str_opt
FNDA:20,_RNvCslE1WvBQdpRb_14my_http_server16constant_time_eq
FNF:31
FNH:3
DA:36,0
DA:37,0
DA:38,0
DA:39,0
DA:44,0
DA:45,0
DA:47,0
DA:50,0
DA:54,0
DA:55,0
DA:56,0
DA:57,0
DA:58,0
DA:59,0
DA:60,0
DA:61,0
DA:62,0
DA:66,0
DA:67,0
DA:68,0
DA:75,0
DA:76,0
DA:77,0
DA:78,0
DA:79,0
DA:81,0
DA:82,0
DA:83,0
DA:84,0
DA:86,0
DA:87,0
DA:88,0
DA:89,0
DA:90,0
DA:92,0
DA:94,0
DA:95,0
DA:96,0
DA:97,0
DA:98,0
DA:100,0
DA:101,0
DA:103,0
DA:104,0
DA:105,0
DA:107,16
DA:112,16
DA:114,16
DA:115,16
DA:116,16
DA:117,16
DA:119,0
DA:122,16
DA:123,0
DA:124,0
DA:125,0
DA:127,0
DA:128,0
DA:130,0
DA:131,0
DA:132,0
DA:133,0
DA:134,0
DA:135,0
DA:136,0
DA:137,0
DA:138,0
DA:139,0
DA:140,0
DA:141,0
DA:142,0
DA:143,0
DA:144,0
DA:145,0
DA:146,0
DA:147,0
DA:148,0
DA:149,0
DA:150,0
DA:151,0
DA:152,0
DA:153,0
DA:156,0
DA:160,0
DA:161,0
DA:165,0
DA:166,0
DA:167,0
DA:168,0
DA:169,0
DA:170,0
DA:172,16
DA:173,0
DA:174,0
DA:177,16
DA:178,0
DA:179,0
DA:180,0
DA:183,0
DA:184,0
DA:185,16
DA:186,0
DA:187,0
DA:188,0
DA:189,16
DA:190,16
DA:191,16
DA:192,0
DA:193,0
DA:194,0
DA:195,0
DA:196,0
DA:197,0
DA:200,0
DA:202,0
DA:203,0
DA:207,80
DA:208,80
DA:209,80
DA:210,704
DA:211,704
DA:212,704
DA:213,704
DA:214,704
DA:215,80
DA:216,80
DA:219,40
DA:220,40
DA:221,28
DA:222,4
DA:223,8
DA:225,40
DA:230,0
DA:236,0
DA:237,0
DA:239,0
DA:240,0
DA:242,0
DA:243,0
DA:244,0
DA:247,0
DA:248,0
DA:249,0
DA:251,0
DA:252,0
DA:253,0
DA:254,0
DA:256,0
DA:257,0
DA:263,0
DA:264,0
DA:265,0
DA:267,0
DA:269,0
DA:270,0
DA:271,0
DA:275,0
DA:276,0
DA:277,0
DA:278,0
DA:280,0
DA:281,0
DA:282,0
DA:283,0
DA:284,0
DA:285,0
DA:286,0
DA:287,0
DA:288,0
DA:291,0
DA:292,0
DA:293,0
DA:294,0
DA:295,0
DA:296,0
DA:297,0
DA:298,0
DA:299,0
DA:300,0
DA:301,0
DA:302,0
DA:303,0
DA:304,0
DA:305,0
DA:307,0
DA:308,0
DA:309,0
DA:311,0
DA:312,0
DA:313,0
DA:315,0
DA:316,0
DA:319,0
DA:320,0
DA:321,0
DA:322,0
DA:326,0
DA:327,0
DA:328,0
DA:329,0
DA:330,0
DA:331,0
DA:333,0
DA:334,0
DA:335,0
DA:336,0
DA:337,0
DA:339,0
DA:340,0
DA:341,0
DA:343,0
DA:345,0
DA:346,0
DA:347,0
DA:349,0
DA:351,0
DA:352,0
DA:353,0
DA:355,0
DA:356,0
DA:357,0
DA:358,0
DA:361,0
DA:362,0
DA:363,0
DA:364,0
DA:365,0
DA:366,0
DA:369,0
DA:370,0
DA:371,0
DA:372,0
DA:373,0
DA:374,0
DA:377,0
DA:379,0
DA:380,0
DA:381,0
DA:385,0
DA:386,0
DA:389,0
DA:391,0
DA:393,0
DA:394,0
DA:395,0
DA:396,0
DA:397,0
DA:400,0
DA:401,0
DA:402,0
DA:403,0
DA:404,0
DA:405,0
DA:406,0
DA:408,0
DA:409,0
DA:410,0
DA:411,0
DA:412,0
DA:413,0
DA:414,0
DA:415,0
DA:418,0
DA:422,0
DA:423,0
DA:424,0
DA:425,0
DA:426,0
DA:427,0
DA:428,0
DA:429,0
DA:430,0
DA:431,0
DA:432,0
DA:433,0
DA:434,0
DA:435,0
DA:436,0
DA:437,0
DA:438,0
DA:440,0
DA:441,0
DA:442,0
DA:443,0
DA:444,0
DA:445,0
DA:449,0
DA:452,0
DA:453,0
DA:464,0
DA:465,0
DA:466,0
DA:467,0
DA:477,0
DA:478,0
DA:479,0
DA:480,0
DA:482,0
DA:483,0
BRF:0
BRH:0
LF:318
LH:29
end_of_record
SF:C:\Users\pl816\OneDrive\文件\git\my-http-server\src\parser\markdown.rs
FN:78,_RNCNvNtNtCsJUKjIpJSKG_14my_http_server6parser8markdown7get_toc0B7_
FN:85,_RNCNvNtNtCsJUKjIpJSKG_14my_http_server6parser8markdown7get_tocs_0B7_
FN:54,_RNvNtNtCsJUKjIpJSKG_14my_http_server6parser8markdown7get_toc
FN:26,_RNvNtNtCsJUKjIpJSKG_14my_http_server6parser8markdown8emit_toc
FN:110,_RNvNtNtCsJUKjIpJSKG_14my_http_server6parser8markdown9parser_md
FN:78,_RNCNvNtNtCsgBNAdYuGUwB_14my_http_server6parser8markdown7get_toc0B7_
FN:85,_RNCNvNtNtCsgBNAdYuGUwB_14my_http_server6parser8markdown7get_tocs_0B7_
FN:54,_RNvNtNtCsgBNAdYuGUwB_14my_http_server6parser8markdown7get_toc
FN:26,_RNvNtNtCsgBNAdYuGUwB_14my_http_server6parser8markdown8emit_toc
FN:110,_RNvNtNtCsgBNAdYuGUwB_14my_http_server6parser8markdown9parser_md
FN:54,_RNvNtNtCs9ofXrUXFSdM_14my_http_server6parser8markdown7get_toc
FN:26,_RNvNtNtCs9ofXrUXFSdM_14my_http_server6parser8markdown8emit_toc
FN:110,_RNvNtNtCs9ofXrUXFSdM_14my_http_server6parser8markdown9parser_md
FN:78,_RNCNvNtNtCs9ofXrUXFSdM_14my_http_server6parser8markdown7get_toc0B7_
FN:85,_RNCNvNtNtCs9ofXrUXFSdM_14my_http_server6parser8markdown7get_tocs_0B7_
FN:54,_RNvNtNtCslE1WvBQdpRb_14my_http_server6parser8markdown7get_toc
FN:26,_RNvNtNtCslE1WvBQdpRb_14my_http_server6parser8markdown8emit_toc
FN:110,_RNvNtNtCslE1WvBQdpRb_14my_http_server6parser8markdown9parser_md
FN:78,_RNCNvNtNtCslE1WvBQdpRb_14my_http_server6parser8markdown7get_toc0B7_
FN:85,_RNCNvNtNtCslE1WvBQdpRb_14my_http_server6parser8markdown7get_tocs_0B7_
FNDA:24,_RNCNvNtNtCsJUKjIpJSKG_14my_http_server6parser8markdown7get_toc0B7_
FNDA:26,_RNCNvNtNtCsJUKjIpJSKG_14my_http_server6parser8markdown7get_tocs_0B7_
FNDA:11,_RNvNtNtCsJUKjIpJSKG_14my_http_server6parser8markdown7get_toc
FNDA:35,_RNvNtNtCsJUKjIpJSKG_14my_http_server6parser8markdown8emit_toc
FNDA:37,_RNvNtNtCsJUKjIpJSKG_14my_http_server6parser8markdown9parser_md
FNDA:24,_RNCNvNtNtCsgBNAdYuGUwB_14my_http_server6parser8markdown7get_toc0B7_
FNDA:26,_RNCNvNtNtCsgBNAdYuGUwB_14my_http_server6parser8markdown7get_tocs_0B7_
FNDA:11,_RNvNtNtCsgBNAdYuGUwB_14my_http_server6parser8markdown7get_toc
FNDA:35,_RNvNtNtCsgBNAdYuGUwB_14my_http_server6parser8markdown8emit_toc
FNDA:37,_RNvNtNtCsgBNAdYuGUwB_14my_http_server6parser8markdown9parser_md
FNDA:11,_RNvNtNtCs9ofXrUXFSdM_14my_http_server6parser8markdown7get_toc
FNDA:35,_RNvNtNtCs9ofXrUXFSdM_14my_http_server6parser8markdown8emit_toc
FNDA:37,_RNvNtNtCs9ofXrUXFSdM_14my_http_server6parser8markdown9parser_md
FNDA:24,_RNCNvNtNtCs9ofXrUXFSdM_14my_http_server6parser8markdown7get_toc0B7_
FNDA:26,_RNCNvNtNtCs9ofXrUXFSdM_14my_http_server6parser8markdown7get_tocs_0B7_
FNDA:11,_RNvNtNtCslE1WvBQdpRb_14my_http_server6parser8markdown7get_toc
FNDA:35,_RNvNtNtCslE1WvBQdpRb_14my_http_server6parser8markdown8emit_toc
FNDA:37,_RNvNtNtCslE1WvBQdpRb_14my_http_server6parser8markdown9parser_md
FNDA:24,_RNCNvNtNtCslE1WvBQdpRb_14my_http_server6parser8markdown7get_toc0B7_
FNDA:26,_RNCNvNtNtCslE1WvBQdpRb_14my_http_server6parser8markdown7get_tocs_0B7_
FNF:5
FNH:5
DA:26,140
DA:27,236
DA:28,96
DA:29,0
DA:31,96
DA:33,96
DA:34,96
DA:35,96
DA:36,96
DA:37,96
DA:38,96
DA:39,96
DA:41,96
DA:42,96
DA:43,96
DA:45,140
DA:54,44
DA:55,44
DA:56,44
DA:57,44
DA:59,44
DA:61,44
DA:64,44
DA:65,44
DA:67,80
DA:68,80
DA:69,80
DA:70,80
DA:71,80
DA:72,80
DA:73,80
DA:74,80
DA:77,80
DA:78,96
DA:79,0
DA:80,0
DA:81,80
DA:83,80
DA:84,80
DA:85,104
DA:86,80
DA:87,80
DA:88,184
DA:89,104
DA:90,104
DA:94,44
DA:95,44
DA:96,44
DA:97,44
DA:98,44
DA:99,44
DA:101,44
DA:102,44
DA:103,44
DA:110,148
DA:113,148
DA:114,148
DA:115,148
DA:117,148
DA:118,0
DA:119,148
BRF:0
BRH:0
LF:63
LH:59
end_of_record
SF:C:\Users\pl816\OneDrive\文件\git\my-http-server\src\parser\mod.rs
FN:59,_RNvNtCsJUKjIpJSKG_14my_http_server6parser7md2html
FN:84,_RNvXNvNtCsJUKjIpJSKG_14my_http_server6parser7md2htmlNtB2_19ReplaceGithubEmojisNtNtNtCs2F8oPuKGxP2_12markdown_ppp13ast_transform11transformer11Transformer16transform_inline
FN:59,_RNvNtCsgBNAdYuGUwB_14my_http_server6parser7md2html
FN:59,_RNvNtCs9ofXrUXFSdM_14my_http_server6parser7md2html
FN:84,_RNvXNvNtCs9ofXrUXFSdM_14my_http_server6parser7md2htmlNtB2_19ReplaceGithubEmojisNtNtNtCs2F8oPuKGxP2_12markdown_ppp13ast_transform11transformer11Transformer16transform_inline
FN:59,_RNvNtCslE1WvBQdpRb_14my_http_server6parser7md2html
FNDA:9,_RNvNtCsJUKjIpJSKG_14my_http_server6parser7md2html
FNDA:8,_RNvXNvNtCsJUKjIpJSKG_14my_http_server6parser7md2htmlNtB2_19ReplaceGithubEmojisNtNtNtCs2F8oPuKGxP2_12markdown_ppp13ast_transform11transformer11Transformer16transform_inline
FNDA:9,_RNvNtCsgBNAdYuGUwB_14my_http_server6parser7md2html
FNDA:9,_RNvNtCs9ofXrUXFSdM_14my_http_server6parser7md2html
FNDA:8,_RNvXNvNtCs9ofXrUXFSdM_14my_http_server6parser7md2htmlNtB2_19ReplaceGithubEmojisNtNtNtCs2F8oPuKGxP2_12markdown_ppp13ast_transform11transformer11Transformer16transform_inline
FNDA:9,_RNvNtCslE1WvBQdpRb_14my_http_server6parser7md2html
FNF:2
FNH:2
DA:59,36
DA:60,36
DA:61,36
DA:62,36
DA:63,36
DA:64,36
DA:65,36
DA:67,72
DA:68,36
DA:69,36
DA:72,36
DA:73,36
DA:74,36
DA:75,0
DA:77,32
DA:79,32
DA:84,16
DA:85,16
DA:86,16
DA:87,16
DA:88,16
DA:89,16
DA:90,16
DA:91,16
DA:92,16
DA:93,0
DA:94,0
DA:95,0
DA:96,0
DA:102,0
DA:104,16
DA:105,0
DA:106,0
DA:107,0
DA:108,0
DA:110,16
DA:112,0
DA:114,16
DA:117,16
DA:118,0
DA:119,0
DA:120,0
DA:121,0
DA:122,0
DA:123,16
DA:124,16
DA:125,16
DA:126,16
DA:127,16
DA:129,0
DA:130,0
DA:131,0
DA:132,0
DA:137,32
DA:138,32
DA:139,32
DA:140,32
DA:144,32
DA:145,32
DA:146,32
DA:147,0
DA:148,0
DA:149,0
DA:152,36
BRF:0
BRH:0
LF:64
LH:41
end_of_record
SF:C:\Users\pl816\OneDrive\文件\git\my-http-server\src\parser\templating.rs
FN:93,_RNvNtNtCsJUKjIpJSKG_14my_http_server6parser10templating10get_engine
FN:68,_RNvNtNtCsJUKjIpJSKG_14my_http_server6parser10templating11get_context
FN:25,_RNvNtNtCsJUKjIpJSKG_14my_http_server6parser10templating17set_context_value
FN:94,_RNCNvNtNtCsJUKjIpJSKG_14my_http_server6parser10templating10get_engine0B7_
FN:104,_RNCNvNtNtCsJUKjIpJSKG_14my_http_server6parser10templating10get_engines0_0B7_
FN:103,_RNCNvNtNtCsJUKjIpJSKG_14my_http_server6parser10templating10get_engines_0B7_
FN:72,_RNCNvNtNtCsJUKjIpJSKG_14my_http_server6parser10templating11get_context0B7_
FN:93,_RNvNtNtCsgBNAdYuGUwB_14my_http_server6parser10templating10get_engine
FN:68,_RNvNtNtCsgBNAdYuGUwB_14my_http_server6parser10templating11get_context
FN:25,_RNvNtNtCsgBNAdYuGUwB_14my_http_server6parser10templating17set_context_value
FN:94,_RNCNvNtNtCsgBNAdYuGUwB_14my_http_server6parser10templating10get_engine0B7_
FN:104,_RNCNvNtNtCsgBNAdYuGUwB_14my_http_server6parser10templating10get_engines0_0B7_
FN:103,_RNCNvNtNtCsgBNAdYuGUwB_14my_http_server6parser10templating10get_engines_0B7_
FN:72,_RNCNvNtNtCsgBNAdYuGUwB_14my_http_server6parser10templating11get_context0B7_
FN:94,_RNCNvNtNtCs9ofXrUXFSdM_14my_http_server6parser10templating10get_engine0B7_
FN:104,_RNCNvNtNtCs9ofXrUXFSdM_14my_http_server6parser10templating10get_engines0_0B7_
FN:103,_RNCNvNtNtCs9ofXrUXFSdM_14my_http_server6parser10templating10get_engines_0B7_
FN:72,_RNCNvNtNtCs9ofXrUXFSdM_14my_http_server6parser10templating11get_context0B7_
FN:93,_RNvNtNtCs9ofXrUXFSdM_14my_http_server6parser10templating10get_engine
FN:68,_RNvNtNtCs9ofXrUXFSdM_14my_http_server6parser10templating11get_context
FN:25,_RNvNtNtCs9ofXrUXFSdM_14my_http_server6parser10templating17set_context_value
FN:94,_RNCNvNtNtCslE1WvBQdpRb_14my_http_server6parser10templating10get_engine0B7_
FN:104,_RNCNvNtNtCslE1WvBQdpRb_14my_http_server6parser10templating10get_engines0_0B7_
FN:103,_RNCNvNtNtCslE1WvBQdpRb_14my_http_server6parser10templating10get_engines_0B7_
FN:72,_RNCNvNtNtCslE1WvBQdpRb_14my_http_server6parser10templating11get_context0B7_
FN:93,_RNvNtNtCslE1WvBQdpRb_14my_http_server6parser10templating10get_engine
FN:68,_RNvNtNtCslE1WvBQdpRb_14my_http_server6parser10templating11get_context
FN:25,_RNvNtNtCslE1WvBQdpRb_14my_http_server6parser10templating17set_context_value
FNDA:9,_RNvNtNtCsJUKjIpJSKG_14my_http_server6parser10templating10get_engine
FNDA:11,_RNvNtNtCsJUKjIpJSKG_14my_http_server6parser10templating11get_context
FNDA:40,_RNvNtNtCsJUKjIpJSKG_14my_http_server6parser10templating17set_context_value
FNDA:9,_RNCNvNtNtCsJUKjIpJSKG_14my_http_server6parser10templating10get_engine0B7_
FNDA:0,_RNCNvNtNtCsJUKjIpJSKG_14my_http_server6parser10templating10get_engines0_0B7_
FNDA:9,_RNCNvNtNtCsJUKjIpJSKG_14my_http_server6parser10templating10get_engines_0B7_
FNDA:0,_RNCNvNtNtCsJUKjIpJSKG_14my_http_server6parser10templating11get_context0B7_
FNDA:9,_RNvNtNtCsgBNAdYuGUwB_14my_http_server6parser10templating10get_engine
FNDA:11,_RNvNtNtCsgBNAdYuGUwB_14my_http_server6parser10templating11get_context
FNDA:40,_RNvNtNtCsgBNAdYuGUwB_14my_http_server6parser10templating17set_context_value
FNDA:9,_RNCNvNtNtCsgBNAdYuGUwB_14my_http_server6parser10templating10get_engine0B7_
FNDA:0,_RNCNvNtNtCsgBNAdYuGUwB_14my_http_server6parser10templating10get_engines0_0B7_
FNDA:9,_RNCNvNtNtCsgBNAdYuGUwB_14my_http_server6parser10templating10get_engines_0B7_
FNDA:0,_RNCNvNtNtCsgBNAdYuGUwB_14my_http_server6parser10templating11get_context0B7_
FNDA:9,_RNCNvNtNtCs9ofXrUXFSdM_14my_http_server6parser10templating10get_engine0B7_
FNDA:0,_RNCNvNtNtCs9ofXrUXFSdM_14my_http_server6parser10templating10get_engines0_0B7_
FNDA:9,_RNCNvNtNtCs9ofXrUXFSdM_14my_http_server6parser10templating10get_engines_0B7_
FNDA:0,_RNCNvNtNtCs9ofXrUXFSdM_14my_http_server6parser10templating11get_context0B7_
FNDA:9,_RNvNtNtCs9ofXrUXFSdM_14my_http_server6parser10templating10get_engine
FNDA:11,_RNvNtNtCs9ofXrUXFSdM_14my_http_server6parser10templating11get_context
FNDA:40,_RNvNtNtCs9ofXrUXFSdM_14my_http_server6parser10templating17set_context_value
FNDA:9,_RNCNvNtNtCslE1WvBQdpRb_14my_http_server6parser10templating10get_engine0B7_
FNDA:0,_RNCNvNtNtCslE1WvBQdpRb_14my_http_server6parser10templating10get_engines0_0B7_
FNDA:9,_RNCNvNtNtCslE1WvBQdpRb_14my_http_server6parser10templating10get_engines_0B7_
FNDA:0,_RNCNvNtNtCslE1WvBQdpRb_14my_http_server6parser10templating11get_context0B7_
FNDA:9,_RNvNtNtCslE1WvBQdpRb_14my_http_server6parser10templating10get_engine
FNDA:11,_RNvNtNtCslE1WvBQdpRb_14my_http_server6parser10templating11get_context
FNDA:40,_RNvNtNtCslE1WvBQdpRb_14my_http_server6parser10templating17set_context_value
FNF:7
FNH:5
DA:25,160
DA:26,160
DA:29,160
DA:30,156
DA:31,156
DA:32,156
DA:33,4
DA:34,152
DA:36,152
DA:37,20
DA:39,20
DA:40,16
DA:41,16
DA:43,4
DA:45,132
DA:47,148
DA:48,32
DA:49,32
DA:50,116
DA:53,116
DA:54,32
DA:55,84
DA:56,84
DA:57,84
DA:58,4
DA:59,160
DA:68,44
DA:69,44
DA:70,44
DA:72,44
DA:73,0
DA:74,0
DA:75,0
DA:76,44
DA:77,0
DA:78,0
DA:79,0
DA:80,44
DA:82,44
DA:83,44
DA:93,36
DA:94,36
DA:95,36
DA:96,36
DA:97,0
DA:98,36
DA:99,36
DA:100,36
DA:102,36
DA:103,36
DA:104,36
DA:105,36
BRF:0
BRH:0
LF:56
LH:47
end_of_record
SF:C:\Users\pl816\OneDrive\文件\git\my-http-server\src\request.rs
FN:199,_RNCNCNvNvXNtCsJUKjIpJSKG_14my_http_server7requestNtB8_8main_reqNtNtCshOI2ER98jHf_9actix_web7service18HttpServiceFactory8register8main_req00Ba_
FN:248,_RNCNCNvNvXNtCsJUKjIpJSKG_14my_http_server7requestNtB8_8main_reqNtNtCshOI2ER98jHf_9actix_web7service18HttpServiceFactory8register8main_req0s_0Ba_
FN:81,_RNCNvNtCsJUKjIpJSKG_14my_http_server7request11respond_4040B5_
FN:122,_RNCNvNtCsJUKjIpJSKG_14my_http_server7request32render_markdown_to_html_response0B5_
FN:193,_RNCNvNvXNtCsJUKjIpJSKG_14my_http_server7requestNtB6_8main_reqNtNtCshOI2ER98jHf_9actix_web7service18HttpServiceFactory8register8main_req0B8_
FN:81,_RNvNtCsJUKjIpJSKG_14my_http_server7request11respond_404
FN:151,_RNvNtCsJUKjIpJSKG_14my_http_server7request27render_toc_to_html_response
FN:111,_RNvNtCsJUKjIpJSKG_14my_http_server7request32render_markdown_to_html_response
FN:193,_RNvNvXNtCsJUKjIpJSKG_14my_http_server7requestNtB4_8main_reqNtNtCshOI2ER98jHf_9actix_web7service18HttpServiceFactory8register8main_req
FN:73,_RNvNtCsJUKjIpJSKG_14my_http_server7request12server_error
FN:73,_RNvNtCsgBNAdYuGUwB_14my_http_server7request12server_error
FN:199,_RNCNCNvNvXNtCsgBNAdYuGUwB_14my_http_server7requestNtB8_8main_reqNtNtCshOI2ER98jHf_9actix_web7service18HttpServiceFactory8register8main_req00Ba_
FN:248,_RNCNCNvNvXNtCsgBNAdYuGUwB_14my_http_server7requestNtB8_8main_reqNtNtCshOI2ER98jHf_9actix_web7service18HttpServiceFactory8register8main_req0s_0Ba_
FN:81,_RNCNvNtCsgBNAdYuGUwB_14my_http_server7request11respond_4040B5_
FN:122,_RNCNvNtCsgBNAdYuGUwB_14my_http_server7request32render_markdown_to_html_response0B5_
FN:193,_RNCNvNvXNtCsgBNAdYuGUwB_14my_http_server7requestNtB6_8main_reqNtNtCshOI2ER98jHf_9actix_web7service18HttpServiceFactory8register8main_req0B8_
FN:81,_RNvNtCsgBNAdYuGUwB_14my_http_server7request11respond_404
FN:151,_RNvNtCsgBNAdYuGUwB_14my_http_server7request27render_toc_to_html_response
FN:111,_RNvNtCsgBNAdYuGUwB_14my_http_server7request32render_markdown_to_html_response
FN:193,_RNvNvXNtCsgBNAdYuGUwB_14my_http_server7requestNtB4_8main_reqNtNtCshOI2ER98jHf_9actix_web7service18HttpServiceFactory8register8main_req
FN:199,_RNCNCNvNvXNtCs9ofXrUXFSdM_14my_http_server7requestNtB8_8main_reqNtNtCs2w4TRgjrzQ8_9actix_web7service18HttpServiceFactory8register8main_req00Ba_
FN:248,_RNCNCNvNvXNtCs9ofXrUXFSdM_14my_http_server7requestNtB8_8main_reqNtNtCs2w4TRgjrzQ8_9actix_web7service18HttpServiceFactory8register8main_req0s_0Ba_
FN:81,_RNCNvNtCs9ofXrUXFSdM_14my_http_server7request11respond_4040B5_
FN:122,_RNCNvNtCs9ofXrUXFSdM_14my_http_server7request32render_markdown_to_html_response0B5_
FN:193,_RNCNvNvXNtCs9ofXrUXFSdM_14my_http_server7requestNtB6_8main_reqNtNtCs2w4TRgjrzQ8_9actix_web7service18HttpServiceFactory8register8main_req0B8_
FN:81,_RNvNtCs9ofXrUXFSdM_14my_http_server7request11respond_404
FN:151,_RNvNtCs9ofXrUXFSdM_14my_http_server7request27render_toc_to_html_response
FN:111,_RNvNtCs9ofXrUXFSdM_14my_http_server7request32render_markdown_to_html_response
FN:193,_RNvNvXNtCs9ofXrUXFSdM_14my_http_server7requestNtB4_8main_reqNtNtCs2w4TRgjrzQ8_9actix_web7service18HttpServiceFactory8register8main_req
FN:73,_RNvNtCs9ofXrUXFSdM_14my_http_server7request12server_error
FN:199,_RNCNCNvNvXNtCslE1WvBQdpRb_14my_http_server7requestNtB8_8main_reqNtNtCs2w4TRgjrzQ8_9actix_web7service18HttpServiceFactory8register8main_req00Ba_
FN:248,_RNCNCNvNvXNtCslE1WvBQdpRb_14my_http_server7requestNtB8_8main_reqNtNtCs2w4TRgjrzQ8_9actix_web7service18HttpServiceFactory8register8main_req0s_0Ba_
FN:81,_RNCNvNtCslE1WvBQdpRb_14my_http_server7request11respond_4040B5_
FN:122,_RNCNvNtCslE1WvBQdpRb_14my_http_server7request32render_markdown_to_html_response0B5_
FN:193,_RNCNvNvXNtCslE1WvBQdpRb_14my_http_server7requestNtB6_8main_reqNtNtCs2w4TRgjrzQ8_9actix_web7service18HttpServiceFactory8register8main_req0B8_
FN:81,_RNvNtCslE1WvBQdpRb_14my_http_server7request11respond_404
FN:151,_RNvNtCslE1WvBQdpRb_14my_http_server7request27render_toc_to_html_response
FN:111,_RNvNtCslE1WvBQdpRb_14my_http_server7request32render_markdown_to_html_response
FN:193,_RNvNvXNtCslE1WvBQdpRb_14my_http_server7requestNtB4_8main_reqNtNtCs2w4TRgjrzQ8_9actix_web7service18HttpServiceFactory8register8main_req
FN:73,_RNvNtCslE1WvBQdpRb_14my_http_server7request12server_error
FNDA:0,_RNCNCNvNvXNtCsJUKjIpJSKG_14my_http_server7requestNtB8_8main_reqNtNtCshOI2ER98jHf_9actix_web7service18HttpServiceFactory8register8main_req00Ba_
FNDA:0,_RNCNCNvNvXNtCsJUKjIpJSKG_14my_http_server7requestNtB8_8main_reqNtNtCshOI2ER98jHf_9actix_web7service18HttpServiceFactory8register8main_req0s_0Ba_
FNDA:0,_RNCNvNtCsJUKjIpJSKG_14my_http_server7request11respond_4040B5_
FNDA:0,_RNCNvNtCsJUKjIpJSKG_14my_http_server7request32render_markdown_to_html_response0B5_
FNDA:0,_RNCNvNvXNtCsJUKjIpJSKG_14my_http_server7requestNtB6_8main_reqNtNtCshOI2ER98jHf_9actix_web7service18HttpServiceFactory8register8main_req0B8_
FNDA:0,_RNvNtCsJUKjIpJSKG_14my_http_server7request11respond_404
FNDA:0,_RNvNtCsJUKjIpJSKG_14my_http_server7request27render_toc_to_html_response
FNDA:0,_RNvNtCsJUKjIpJSKG_14my_http_server7request32render_markdown_to_html_response
FNDA:0,_RNvNvXNtCsJUKjIpJSKG_14my_http_server7requestNtB4_8main_reqNtNtCshOI2ER98jHf_9actix_web7service18HttpServiceFactory8register8main_req
FNDA:1,_RNvNtCsJUKjIpJSKG_14my_http_server7request12server_error
FNDA:1,_RNvNtCsgBNAdYuGUwB_14my_http_server7request12server_error
FNDA:0,_RNCNCNvNvXNtCsgBNAdYuGUwB_14my_http_server7requestNtB8_8main_reqNtNtCshOI2ER98jHf_9actix_web7service18HttpServiceFactory8register8main_req00Ba_
FNDA:0,_RNCNCNvNvXNtCsgBNAdYuGUwB_14my_http_server7requestNtB8_8main_reqNtNtCshOI2ER98jHf_9actix_web7service18HttpServiceFactory8register8main_req0s_0Ba_
FNDA:0,_RNCNvNtCsgBNAdYuGUwB_14my_http_server7request11respond_4040B5_
FNDA:0,_RNCNvNtCsgBNAdYuGUwB_14my_http_server7request32render_markdown_to_html_response0B5_
FNDA:0,_RNCNvNvXNtCsgBNAdYuGUwB_14my_http_server7requestNtB6_8main_reqNtNtCshOI2ER98jHf_9actix_web7service18HttpServiceFactory8register8main_req0B8_
FNDA:0,_RNvNtCsgBNAdYuGUwB_14my_http_server7request11respond_404
FNDA:0,_RNvNtCsgBNAdYuGUwB_14my_http_server7request27render_toc_to_html_response
FNDA:0,_RNvNtCsgBNAdYuGUwB_14my_http_server7request32render_markdown_to_html_response
FNDA:0,_RNvNvXNtCsgBNAdYuGUwB_14my_http_server7requestNtB4_8main_reqNtNtCshOI2ER98jHf_9actix_web7service18HttpServiceFactory8register8main_req
FNDA:0,_RNCNCNvNvXNtCs9ofXrUXFSdM_14my_http_server7requestNtB8_8main_reqNtNtCs2w4TRgjrzQ8_9actix_web7service18HttpServiceFactory8register8main_req00Ba_
FNDA:0,_RNCNCNvNvXNtCs9ofXrUXFSdM_14my_http_server7requestNtB8_8main_reqNtNtCs2w4TRgjrzQ8_9actix_web7service18HttpServiceFactory8register8main_req0s_0Ba_
FNDA:0,_RNCNvNtCs9ofXrUXFSdM_14my_http_server7request11respond_4040B5_
FNDA:0,_RNCNvNtCs9ofXrUXFSdM_14my_http_server7request32render_markdown_to_html_response0B5_
FNDA:0,_RNCNvNvXNtCs9ofXrUXFSdM_14my_http_server7requestNtB6_8main_reqNtNtCs2w4TRgjrzQ8_9actix_web7service18HttpServiceFactory8register8main_req0B8_
FNDA:0,_RNvNtCs9ofXrUXFSdM_14my_http_server7request11respond_404
FNDA:0,_RNvNtCs9ofXrUXFSdM_14my_http_server7request27render_toc_to_html_response
FNDA:0,_RNvNtCs9ofXrUXFSdM_14my_http_server7request32render_markdown_to_html_response
FNDA:0,_RNvNvXNtCs9ofXrUXFSdM_14my_http_server7requestNtB4_8main_reqNtNtCs2w4TRgjrzQ8_9actix_web7service18HttpServiceFactory8register8main_req
FNDA:1,_RNvNtCs9ofXrUXFSdM_14my_http_server7request12server_error
FNDA:0,_RNCNCNvNvXNtCslE1WvBQdpRb_14my_http_server7requestNtB8_8main_reqNtNtCs2w4TRgjrzQ8_9actix_web7service18HttpServiceFactory8register8main_req00Ba_
FNDA:0,_RNCNCNvNvXNtCslE1WvBQdpRb_14my_http_server7requestNtB8_8main_reqNtNtCs2w4TRgjrzQ8_9actix_web7service18HttpServiceFactory8register8main_req0s_0Ba_
FNDA:0,_RNCNvNtCslE1WvBQdpRb_14my_http_server7request11respond_4040B5_
FNDA:0,_RNCNvNtCslE1WvBQdpRb_14my_http_server7request32render_markdown_to_html_response0B5_
FNDA:0,_RNCNvNvXNtCslE1WvBQdpRb_14my_http_server7requestNtB6_8main_reqNtNtCs2w4TRgjrzQ8_9actix_web7service18HttpServiceFactory8register8main_req0B8_
FNDA:0,_RNvNtCslE1WvBQdpRb_14my_http_server7request11respond_404
FNDA:0,_RNvNtCslE1WvBQdpRb_14my_http_server7request27render_toc_to_html_response
FNDA:0,_RNvNtCslE1WvBQdpRb_14my_http_server7request32render_markdown_to_html_response
FNDA:0,_RNvNvXNtCslE1WvBQdpRb_14my_http_server7requestNtB4_8main_reqNtNtCs2w4TRgjrzQ8_9actix_web7service18HttpServiceFactory8register8main_req
FNDA:1,_RNvNtCslE1WvBQdpRb_14my_http_server7request12server_error
FNF:10
FNH:1
DA:73,4
DA:74,4
DA:75,4
DA:76,4
DA:77,4
DA:81,0
DA:83,0
DA:84,0
DA:85,0
DA:86,0
DA:87,0
DA:88,0
DA:89,0
DA:90,0
DA:91,0
DA:92,0
DA:93,0
DA:94,0
DA:96,0
DA:97,0
DA:98,0
DA:101,0
DA:111,0
DA:112,0
DA:113,0
DA:114,0
DA:115,0
DA:117,0
DA:118,0
DA:120,0
DA:121,0
DA:122,0
DA:123,0
DA:124,0
DA:125,0
DA:126,0
DA:128,0
DA:129,0
DA:130,0
DA:131,0
DA:132,0
DA:133,0
DA:134,0
DA:138,0
DA:139,0
DA:140,0
DA:143,0
DA:151,0
DA:152,0
DA:153,0
DA:154,0
DA:155,0
DA:157,0
DA:158,0
DA:159,0
DA:160,0
DA:161,0
DA:162,0
DA:163,0
DA:164,0
DA:165,0
DA:166,0
DA:167,0
DA:168,0
DA:169,0
DA:173,0
DA:174,0
DA:175,0
DA:178,0
DA:193,0
DA:194,0
DA:196,0
DA:197,0
DA:198,0
DA:199,0
DA:200,0
DA:201,0
DA:204,0
DA:205,0
DA:207,0
DA:208,0
DA:209,0
DA:210,0
DA:211,0
DA:212,0
DA:213,0
DA:214,0
DA:215,0
DA:216,0
DA:217,0
DA:218,0
DA:219,0
DA:220,0
DA:222,0
DA:223,0
DA:224,0
DA:227,0
DA:228,0
DA:229,0
DA:230,0
DA:231,0
DA:232,0
DA:233,0
DA:234,0
DA:235,0
DA:236,0
DA:237,0
DA:240,0
DA:241,0
DA:242,0
DA:243,0
DA:244,0
DA:248,0
DA:249,0
DA:250,0
DA:252,0
DA:253,0
DA:254,0
DA:256,0
DA:257,0
DA:258,0
DA:259,0
DA:260,0
DA:261,0
DA:262,0
DA:265,0
DA:266,0
DA:267,0
DA:268,0
DA:270,0
DA:272,0
DA:275,0
DA:276,0
DA:277,0
DA:278,0
DA:281,0
BRF:0
BRH:0
LF:141
LH:5
end_of_record
SF:C:\Users\pl816\OneDrive\文件\git\my-http-server\src\test\api.rs
FN:275,_RNvNtNtCs9ofXrUXFSdM_14my_http_server4test3apis_20test_sorting_entries
FN:249,_RNvNtNtCs9ofXrUXFSdM_14my_http_server4test3apis_22test_directory_reading
FN:333,_RNvNtNtCs9ofXrUXFSdM_14my_http_server4test3apis_22test_path_type_strings
FN:350,_RNvNtNtCs9ofXrUXFSdM_14my_http_server4test3apis_24test_empty_path_handling
FN:216,_RNvNtNtCs9ofXrUXFSdM_14my_http_server4test3apis_24test_file_type_detection
FN:188,_RNvNtNtCs9ofXrUXFSdM_14my_http_server4test3apis_26test_path_validation_logic
FN:175,_RNvNtNtCs9ofXrUXFSdM_14my_http_server4test3apis_28test_empty_directory_listing
FN:87,_RNvNtNtCs9ofXrUXFSdM_14my_http_server4test3apis_28test_file_info_serialization
FN:235,_RNvNtNtCs9ofXrUXFSdM_14my_http_server4test3apis_29test_file_metadata_extraction
FN:359,_RNvNtNtCs9ofXrUXFSdM_14my_http_server4test3apis_29test_path_traversal_detection
FN:9,_RNvNtNtCs9ofXrUXFSdM_14my_http_server4test3apis_30test_file_info_struct_creation
FN:321,_RNvNtNtCs9ofXrUXFSdM_14my_http_server4test3apis_30test_unix_timestamp_conversion
FN:200,_RNvNtNtCs9ofXrUXFSdM_14my_http_server4test3apis_31test_relative_path_construction
FN:138,_RNvNtNtCs9ofXrUXFSdM_14my_http_server4test3apis_34test_exists_response_serialization
FN:112,_RNvNtNtCs9ofXrUXFSdM_14my_http_server4test3apis_36test_directory_listing_serialization
FN:66,_RNvNtNtCs9ofXrUXFSdM_14my_http_server4test3apis_36test_exists_response_struct_creation
FN:157,_RNvNtNtCs9ofXrUXFSdM_14my_http_server4test3apis_37test_file_info_with_directory_no_size
FN:30,_RNvNtNtCs9ofXrUXFSdM_14my_http_server4test3apis_38test_directory_listing_struct_creation
FN:306,_RNCNvNtNtCs9ofXrUXFSdM_14my_http_server4test3apis_20test_sorting_entries0B7_
FN:266,_RNCNvNtNtCs9ofXrUXFSdM_14my_http_server4test3apis_22test_directory_reading0B7_
FN:275,_RNvNtNtCslE1WvBQdpRb_14my_http_server4test3apis_20test_sorting_entries
FN:249,_RNvNtNtCslE1WvBQdpRb_14my_http_server4test3apis_22test_directory_reading
FN:333,_RNvNtNtCslE1WvBQdpRb_14my_http_server4test3apis_22test_path_type_strings
FN:350,_RNvNtNtCslE1WvBQdpRb_14my_http_server4test3apis_24test_empty_path_handling
FN:216,_RNvNtNtCslE1WvBQdpRb_14my_http_server4test3apis_24test_file_type_detection
FN:188,_RNvNtNtCslE1WvBQdpRb_14my_http_server4test3apis_26test_path_validation_logic
FN:175,_RNvNtNtCslE1WvBQdpRb_14my_http_server4test3apis_28test_empty_directory_listing
FN:87,_RNvNtNtCslE1WvBQdpRb_14my_http_server4test3apis_28test_file_info_serialization
FN:235,_RNvNtNtCslE1WvBQdpRb_14my_http_server4test3apis_29test_file_metadata_extraction
FN:359,_RNvNtNtCslE1WvBQdpRb_14my_http_server4test3apis_29test_path_traversal_detection
FN:9,_RNvNtNtCslE1WvBQdpRb_14my_http_server4test3apis_30test_file_info_struct_creation
FN:321,_RNvNtNtCslE1WvBQdpRb_14my_http_server4test3apis_30test_unix_timestamp_conversion
FN:200,_RNvNtNtCslE1WvBQdpRb_14my_http_server4test3apis_31test_relative_path_construction
FN:138,_RNvNtNtCslE1WvBQdpRb_14my_http_server4test3apis_34test_exists_response_serialization
FN:112,_RNvNtNtCslE1WvBQdpRb_14my_http_server4test3apis_36test_directory_listing_serialization
FN:66,_RNvNtNtCslE1WvBQdpRb_14my_http_server4test3apis_36test_exists_response_struct_creation
FN:157,_RNvNtNtCslE1WvBQdpRb_14my_http_server4test3apis_37test_file_info_with_directory_no_size
FN:30,_RNvNtNtCslE1WvBQdpRb_14my_http_server4test3apis_38test_directory_listing_struct_creation
FN:306,_RNCNvNtNtCslE1WvBQdpRb_14my_http_server4test3apis_20test_sorting_entries0B7_
FN:266,_RNCNvNtNtCslE1WvBQdpRb_14my_http_server4test3apis_22test_directory_reading0B7_
FNDA:1,_RNvNtNtCs9ofXrUXFSdM_14my_http_server4test3apis_20test_sorting_entries
FNDA:1,_RNvNtNtCs9ofXrUXFSdM_14my_http_server4test3apis_22test_directory_reading
FNDA:1,_RNvNtNtCs9ofXrUXFSdM_14my_http_server4test3apis_22test_path_type_strings
FNDA:1,_RNvNtNtCs9ofXrUXFSdM_14my_http_server4test3apis_24test_empty_path_handling
FNDA:1,_RNvNtNtCs9ofXrUXFSdM_14my_http_server4test3apis_24test_file_type_detection
FNDA:1,_RNvNtNtCs9ofXrUXFSdM_14my_http_server4test3apis_26test_path_validation_logic
FNDA:1,_RNvNtNtCs9ofXrUXFSdM_14my_http_server4test3apis_28test_empty_directory_listing
FNDA:1,_RNvNtNtCs9ofXrUXFSdM_14my_http_server4test3apis_28test_file_info_serialization
FNDA:1,_RNvNtNtCs9ofXrUXFSdM_14my_http_server4test3apis_29test_file_metadata_extraction
FNDA:1,_RNvNtNtCs9ofXrUXFSdM_14my_http_server4test3apis_29test_path_traversal_detection
FNDA:1,_RNvNtNtCs9ofXrUXFSdM_14my_http_server4test3apis_30test_file_info_struct_creation
FNDA:1,_RNvNtNtCs9ofXrUXFSdM_14my_http_server4test3apis_30test_unix_timestamp_conversion
FNDA:1,_RNvNtNtCs9ofXrUXFSdM_14my_http_server4test3apis_31test_relative_path_construction
FNDA:1,_RNvNtNtCs9ofXrUXFSdM_14my_http_server4test3apis_34test_exists_response_serialization
FNDA:1,_RNvNtNtCs9ofXrUXFSdM_14my_http_server4test3apis_36test_directory_listing_serialization
FNDA:1,_RNvNtNtCs9ofXrUXFSdM_14my_http_server4test3apis_36test_exists_response_struct_creation
FNDA:1,_RNvNtNtCs9ofXrUXFSdM_14my_http_server4test3apis_37test_file_info_with_directory_no_size
FNDA:1,_RNvNtNtCs9ofXrUXFSdM_14my_http_server4test3apis_38test_directory_listing_struct_creation
FNDA:3,_RNCNvNtNtCs9ofXrUXFSdM_14my_http_server4test3apis_20test_sorting_entries0B7_
FNDA:3,_RNCNvNtNtCs9ofXrUXFSdM_14my_http_server4test3apis_22test_directory_reading0B7_
FNDA:1,_RNvNtNtCslE1WvBQdpRb_14my_http_server4test3apis_20test_sorting_entries
FNDA:1,_RNvNtNtCslE1WvBQdpRb_14my_http_server4test3apis_22test_directory_reading
FNDA:1,_RNvNtNtCslE1WvBQdpRb_14my_http_server4test3apis_22test_path_type_strings
FNDA:1,_RNvNtNtCslE1WvBQdpRb_14my_http_server4test3apis_24test_empty_path_handling
FNDA:1,_RNvNtNtCslE1WvBQdpRb_14my_http_server4test3apis_24test_file_type_detection
FNDA:1,_RNvNtNtCslE1WvBQdpRb_14my_http_server4test3apis_26test_path_validation_logic
FNDA:1,_RNvNtNtCslE1WvBQdpRb_14my_http_server4test3apis_28test_empty_directory_listing
FNDA:1,_RNvNtNtCslE1WvBQdpRb_14my_http_server4test3apis_28test_file_info_serialization
FNDA:1,_RNvNtNtCslE1WvBQdpRb_14my_http_server4test3apis_29test_file_metadata_extraction
FNDA:1,_RNvNtNtCslE1WvBQdpRb_14my_http_server4test3apis_29test_path_traversal_detection
FNDA:1,_RNvNtNtCslE1WvBQdpRb_14my_http_server4test3apis_30test_file_info_struct_creation
FNDA:1,_RNvNtNtCslE1WvBQdpRb_14my_http_server4test3apis_30test_unix_timestamp_conversion
FNDA:1,_RNvNtNtCslE1WvBQdpRb_14my_http_server4test3apis_31test_relative_path_construction
FNDA:1,_RNvNtNtCslE1WvBQdpRb_14my_http_server4test3apis_34test_exists_response_serialization
FNDA:1,_RNvNtNtCslE1WvBQdpRb_14my_http_server4test3apis_36test_directory_listing_serialization
FNDA:1,_RNvNtNtCslE1WvBQdpRb_14my_http_server4test3apis_36test_exists_response_struct_creation
FNDA:1,_RNvNtNtCslE1WvBQdpRb_14my_http_server4test3apis_37test_file_info_with_directory_no_size
FNDA:1,_RNvNtNtCslE1WvBQdpRb_14my_http_server4test3apis_38test_directory_listing_struct_creation
FNDA:3,_RNCNvNtNtCslE1WvBQdpRb_14my_http_server4test3apis_20test_sorting_entries0B7_
FNDA:3,_RNCNvNtNtCslE1WvBQdpRb_14my_http_server4test3apis_22test_directory_reading0B7_
FNF:20
FNH:20
DA:9,2
DA:12,2
DA:13,2
DA:14,2
DA:15,2
DA:16,2
DA:17,2
DA:18,2
DA:19,2
DA:21,2
DA:22,2
DA:23,2
DA:24,2
DA:25,2
DA:26,2
DA:27,2
DA:30,2
DA:33,2
DA:34,2
DA:35,2
DA:36,2
DA:37,2
DA:38,2
DA:39,2
DA:40,2
DA:41,2
DA:42,2
DA:43,2
DA:44,2
DA:45,2
DA:46,2
DA:47,2
DA:48,2
DA:49,2
DA:52,2
DA:53,2
DA:54,2
DA:55,2
DA:57,2
DA:58,2
DA:59,2
DA:60,2
DA:61,2
DA:62,2
DA:63,2
DA:66,2
DA:69,2
DA:70,2
DA:71,2
DA:72,2
DA:74,2
DA:75,2
DA:77,2
DA:78,2
DA:79,2
DA:80,2
DA:82,2
DA:83,2
DA:84,2
DA:87,2
DA:91,2
DA:92,2
DA:93,2
DA:94,2
DA:95,2
DA:96,2
DA:97,2
DA:98,2
DA:100,2
DA:101,2
DA:102,2
DA:103,2
DA:105,2
DA:106,2
DA:107,2
DA:108,2
DA:109,2
DA:112,2
DA:116,2
DA:117,2
DA:118,2
DA:119,2
DA:120,2
DA:121,2
DA:122,2
DA:123,2
DA:124,2
DA:125,2
DA:126,2
DA:128,2
DA:129,2
DA:131,2
DA:132,2
DA:133,2
DA:134,2
DA:135,2
DA:138,2
DA:142,2
DA:143,2
DA:144,2
DA:145,2
DA:147,2
DA:148,2
DA:149,2
DA:151,2
DA:152,2
DA:153,2
DA:154,2
DA:157,2
DA:160,2
DA:161,2
DA:162,2
DA:163,2
DA:164,2
DA:165,2
DA:166,2
DA:167,2
DA:169,2
DA:170,2
DA:171,2
DA:172,2
DA:175,2
DA:178,2
DA:179,2
DA:180,2
DA:181,2
DA:183,2
DA:184,2
DA:185,2
DA:188,2
DA:192,2
DA:193,2
DA:195,2
DA:196,2
DA:197,2
DA:200,2
DA:203,2
DA:204,2
DA:206,2
DA:207,2
DA:208,2
DA:209,2
DA:210,2
DA:212,2
DA:213,2
DA:216,2
DA:217,2
DA:220,2
DA:221,2
DA:224,2
DA:225,2
DA:228,2
DA:229,2
DA:230,2
DA:231,2
DA:232,2
DA:235,2
DA:236,2
DA:237,2
DA:238,2
DA:239,2
DA:241,2
DA:243,2
DA:244,2
DA:245,2
DA:246,2
DA:249,2
DA:250,2
DA:253,2
DA:254,2
DA:255,2
DA:257,2
DA:258,2
DA:259,2
DA:260,2
DA:262,2
DA:264,2
DA:265,2
DA:266,6
DA:267,2
DA:269,2
DA:270,2
DA:271,2
DA:272,2
DA:275,2
DA:278,2
DA:279,2
DA:280,2
DA:281,2
DA:282,2
DA:283,2
DA:284,2
DA:285,2
DA:286,2
DA:287,2
DA:288,2
DA:289,2
DA:290,2
DA:291,2
DA:292,2
DA:293,2
DA:294,2
DA:295,2
DA:296,2
DA:297,2
DA:298,2
DA:299,2
DA:300,2
DA:301,2
DA:302,2
DA:303,2
DA:306,6
DA:307,2
DA:308,2
DA:309,2
DA:310,6
DA:312,2
DA:313,2
DA:314,2
DA:315,2
DA:316,2
DA:317,2
DA:318,2
DA:321,2
DA:324,2
DA:325,2
DA:326,2
DA:328,2
DA:329,2
DA:330,2
DA:333,2
DA:338,2
DA:339,2
DA:340,2
DA:343,2
DA:344,2
DA:347,2
DA:350,2
DA:351,2
DA:352,2
DA:354,2
DA:355,2
DA:356,2
DA:359,2
DA:362,2
DA:363,2
DA:364,2
DA:366,2
DA:367,2
DA:368,2
BRF:0
BRH:0
LF:252
LH:252
end_of_record
SF:C:\Users\pl816\OneDrive\文件\git\my-http-server\src\test\cli.rs
FN:195,_RNvNtNtCsJUKjIpJSKG_14my_http_server4test3clis_22test_cli_with_tls_args
FN:234,_RNvNtNtCsJUKjIpJSKG_14my_http_server4test3clis_24test_cli_with_hot_reload
FN:215,_RNvNtNtCsJUKjIpJSKG_14my_http_server4test3clis_25test_cli_with_public_path
FN:158,_RNvNtNtCsJUKjIpJSKG_14my_http_server4test3clis_29test_config_file_path_default
FN:27,_RNvNtNtCsJUKjIpJSKG_14my_http_server4test3clis_34test_try_from_args_with_missing_ip
FN:122,_RNvNtNtCsJUKjIpJSKG_14my_http_server4test3clis_36test_config_file_path_with_no_config
FN:51,_RNvNtNtCsJUKjIpJSKG_14my_http_server4test3clis_36test_try_from_args_with_missing_port
FN:140,_RNvNtNtCsJUKjIpJSKG_14my_http_server4test3clis_38test_config_file_path_with_custom_path
FN:4,_RNvNtNtCsJUKjIpJSKG_14my_http_server4test3clis_41test_try_from_args_with_valid_ip_and_port
FN:75,_RNvNtNtCsJUKjIpJSKG_14my_http_server4test3clis_43test_try_from_args_with_missing_ip_and_port
FN:176,_RNvNtNtCsJUKjIpJSKG_14my_http_server4test3clis_46test_config_file_path_no_config_overrides_path
FN:99,_RNvNtNtCsJUKjIpJSKG_14my_http_server4test3clis_47test_try_from_owned_args_with_valid_ip_and_port
FN:195,_RNvNtNtCsgBNAdYuGUwB_14my_http_server4test3clis_22test_cli_with_tls_args
FN:234,_RNvNtNtCsgBNAdYuGUwB_14my_http_server4test3clis_24test_cli_with_hot_reload
FN:215,_RNvNtNtCsgBNAdYuGUwB_14my_http_server4test3clis_25test_cli_with_public_path
FN:158,_RNvNtNtCsgBNAdYuGUwB_14my_http_server4test3clis_29test_config_file_path_default
FN:27,_RNvNtNtCsgBNAdYuGUwB_14my_http_server4test3clis_34test_try_from_args_with_missing_ip
FN:122,_RNvNtNtCsgBNAdYuGUwB_14my_http_server4test3clis_36test_config_file_path_with_no_config
FN:51,_RNvNtNtCsgBNAdYuGUwB_14my_http_server4test3clis_36test_try_from_args_with_missing_port
FN:140,_RNvNtNtCsgBNAdYuGUwB_14my_http_server4test3clis_38test_config_file_path_with_custom_path
FN:4,_RNvNtNtCsgBNAdYuGUwB_14my_http_server4test3clis_41test_try_from_args_with_valid_ip_and_port
FN:75,_RNvNtNtCsgBNAdYuGUwB_14my_http_server4test3clis_43test_try_from_args_with_missing_ip_and_port
FN:176,_RNvNtNtCsgBNAdYuGUwB_14my_http_server4test3clis_46test_config_file_path_no_config_overrides_path
FN:99,_RNvNtNtCsgBNAdYuGUwB_14my_http_server4test3clis_47test_try_from_owned_args_with_valid_ip_and_port
FN:195,_RNvNtNtCs9ofXrUXFSdM_14my_http_server4test3clis_22test_cli_with_tls_args
FN:234,_RNvNtNtCs9ofXrUXFSdM_14my_http_server4test3clis_24test_cli_with_hot_reload
FN:215,_RNvNtNtCs9ofXrUXFSdM_14my_http_server4test3clis_25test_cli_with_public_path
FN:158,_RNvNtNtCs9ofXrUXFSdM_14my_http_server4test3clis_29test_config_file_path_default
FN:27,_RNvNtNtCs9ofXrUXFSdM_14my_http_server4test3clis_34test_try_from_args_with_missing_ip
FN:122,_RNvNtNtCs9ofXrUXFSdM_14my_http_server4test3clis_36test_config_file_path_with_no_config
FN:51,_RNvNtNtCs9ofXrUXFSdM_14my_http_server4test3clis_36test_try_from_args_with_missing_port
FN:140,_RNvNtNtCs9ofXrUXFSdM_14my_http_server4test3clis_38test_config_file_path_with_custom_path
FN:4,_RNvNtNtCs9ofXrUXFSdM_14my_http_server4test3clis_41test_try_from_args_with_valid_ip_and_port
FN:75,_RNvNtNtCs9ofXrUXFSdM_14my_http_server4test3clis_43test_try_from_args_with_missing_ip_and_port
FN:176,_RNvNtNtCs9ofXrUXFSdM_14my_http_server4test3clis_46test_config_file_path_no_config_overrides_path
FN:99,_RNvNtNtCs9ofXrUXFSdM_14my_http_server4test3clis_47test_try_from_owned_args_with_valid_ip_and_port
FN:195,_RNvNtNtCslE1WvBQdpRb_14my_http_server4test3clis_22test_cli_with_tls_args
FN:234,_RNvNtNtCslE1WvBQdpRb_14my_http_server4test3clis_24test_cli_with_hot_reload
FN:215,_RNvNtNtCslE1WvBQdpRb_14my_http_server4test3clis_25test_cli_with_public_path
FN:158,_RNvNtNtCslE1WvBQdpRb_14my_http_server4test3clis_29test_config_file_path_default
FN:27,_RNvNtNtCslE1WvBQdpRb_14my_http_server4test3clis_34test_try_from_args_with_missing_ip
FN:122,_RNvNtNtCslE1WvBQdpRb_14my_http_server4test3clis_36test_config_file_path_with_no_config
FN:51,_RNvNtNtCslE1WvBQdpRb_14my_http_server4test3clis_36test_try_from_args_with_missing_port
FN:140,_RNvNtNtCslE1WvBQdpRb_14my_http_server4test3clis_38test_config_file_path_with_custom_path
FN:4,_RNvNtNtCslE1WvBQdpRb_14my_http_server4test3clis_41test_try_from_args_with_valid_ip_and_port
FN:75,_RNvNtNtCslE1WvBQdpRb_14my_http_server4test3clis_43test_try_from_args_with_missing_ip_and_port
FN:176,_RNvNtNtCslE1WvBQdpRb_14my_http_server4test3clis_46test_config_file_path_no_config_overrides_path
FN:99,_RNvNtNtCslE1WvBQdpRb_14my_http_server4test3clis_47test_try_from_owned_args_with_valid_ip_and_port
FNDA:1,_RNvNtNtCsJUKjIpJSKG_14my_http_server4test3clis_22test_cli_with_tls_args
FNDA:1,_RNvNtNtCsJUKjIpJSKG_14my_http_server4test3clis_24test_cli_with_hot_reload
FNDA:1,_RNvNtNtCsJUKjIpJSKG_14my_http_server4test3clis_25test_cli_with_public_path
FNDA:1,_RNvNtNtCsJUKjIpJSKG_14my_http_server4test3clis_29test_config_file_path_default
FNDA:1,_RNvNtNtCsJUKjIpJSKG_14my_http_server4test3clis_34test_try_from_args_with_missing_ip
FNDA:1,_RNvNtNtCsJUKjIpJSKG_14my_http_server4test3clis_36test_config_file_path_with_no_config
FNDA:1,_RNvNtNtCsJUKjIpJSKG_14my_http_server4test3clis_36test_try_from_args_with_missing_port
FNDA:1,_RNvNtNtCsJUKjIpJSKG_14my_http_server4test3clis_38test_config_file_path_with_custom_path
FNDA:1,_RNvNtNtCsJUKjIpJSKG_14my_http_server4test3clis_41test_try_from_args_with_valid_ip_and_port
FNDA:1,_RNvNtNtCsJUKjIpJSKG_14my_http_server4test3clis_43test_try_from_args_with_missing_ip_and_port
FNDA:1,_RNvNtNtCsJUKjIpJSKG_14my_http_server4test3clis_46test_config_file_path_no_config_overrides_path
FNDA:1,_RNvNtNtCsJUKjIpJSKG_14my_http_server4test3clis_47test_try_from_owned_args_with_valid_ip_and_port
FNDA:1,_RNvNtNtCsgBNAdYuGUwB_14my_http_server4test3clis_22test_cli_with_tls_args
FNDA:1,_RNvNtNtCsgBNAdYuGUwB_14my_http_server4test3clis_24test_cli_with_hot_reload
FNDA:1,_RNvNtNtCsgBNAdYuGUwB_14my_http_server4test3clis_25test_cli_with_public_path
FNDA:1,_RNvNtNtCsgBNAdYuGUwB_14my_http_server4test3clis_29test_config_file_path_default
FNDA:1,_RNvNtNtCsgBNAdYuGUwB_14my_http_server4test3clis_34test_try_from_args_with_missing_ip
FNDA:1,_RNvNtNtCsgBNAdYuGUwB_14my_http_server4test3clis_36test_config_file_path_with_no_config
FNDA:1,_RNvNtNtCsgBNAdYuGUwB_14my_http_server4test3clis_36test_try_from_args_with_missing_port
FNDA:1,_RNvNtNtCsgBNAdYuGUwB_14my_http_server4test3clis_38test_config_file_path_with_custom_path
FNDA:1,_RNvNtNtCsgBNAdYuGUwB_14my_http_server4test3clis_41test_try_from_args_with_valid_ip_and_port
FNDA:1,_RNvNtNtCsgBNAdYuGUwB_14my_http_server4test3clis_43test_try_from_args_with_missing_ip_and_port
FNDA:1,_RNvNtNtCsgBNAdYuGUwB_14my_http_server4test3clis_46test_config_file_path_no_config_overrides_path
FNDA:1,_RNvNtNtCsgBNAdYuGUwB_14my_http_server4test3clis_47test_try_from_owned_args_with_valid_ip_and_port
FNDA:1,_RNvNtNtCs9ofXrUXFSdM_14my_http_server4test3clis_22test_cli_with_tls_args
FNDA:1,_RNvNtNtCs9ofXrUXFSdM_14my_http_server4test3clis_24test_cli_with_hot_reload
FNDA:1,_RNvNtNtCs9ofXrUXFSdM_14my_http_server4test3clis_25test_cli_with_public_path
FNDA:1,_RNvNtNtCs9ofXrUXFSdM_14my_http_server4test3clis_29test_config_file_path_default
FNDA:1,_RNvNtNtCs9ofXrUXFSdM_14my_http_server4test3clis_34test_try_from_args_with_missing_ip
FNDA:1,_RNvNtNtCs9ofXrUXFSdM_14my_http_server4test3clis_36test_config_file_path_with_no_config
FNDA:1,_RNvNtNtCs9ofXrUXFSdM_14my_http_server4test3clis_36test_try_from_args_with_missing_port
FNDA:1,_RNvNtNtCs9ofXrUXFSdM_14my_http_server4test3clis_38test_config_file_path_with_custom_path
FNDA:1,_RNvNtNtCs9ofXrUXFSdM_14my_http_server4test3clis_41test_try_from_args_with_valid_ip_and_port
FNDA:1,_RNvNtNtCs9ofXrUXFSdM_14my_http_server4test3clis_43test_try_from_args_with_missing_ip_and_port
FNDA:1,_RNvNtNtCs9ofXrUXFSdM_14my_http_server4test3clis_46test_config_file_path_no_config_overrides_path
FNDA:1,_RNvNtNtCs9ofXrUXFSdM_14my_http_server4test3clis_47test_try_from_owned_args_with_valid_ip_and_port
FNDA:1,_RNvNtNtCslE1WvBQdpRb_14my_http_server4test3clis_22test_cli_with_tls_args
FNDA:1,_RNvNtNtCslE1WvBQdpRb_14my_http_server4test3clis_24test_cli_with_hot_reload
FNDA:1,_RNvNtNtCslE1WvBQdpRb_14my_http_server4test3clis_25test_cli_with_public_path
FNDA:1,_RNvNtNtCslE1WvBQdpRb_14my_http_server4test3clis_29test_config_file_path_default
FNDA:1,_RNvNtNtCslE1WvBQdpRb_14my_http_server4test3clis_34test_try_from_args_with_missing_ip
FNDA:1,_RNvNtNtCslE1WvBQdpRb_14my_http_server4test3clis_36test_config_file_path_with_no_config
FNDA:1,_RNvNtNtCslE1WvBQdpRb_14my_http_server4test3clis_36test_try_from_args_with_missing_port
FNDA:1,_RNvNtNtCslE1WvBQdpRb_14my_http_server4test3clis_38test_config_file_path_with_custom_path
FNDA:1,_RNvNtNtCslE1WvBQdpRb_14my_http_server4test3clis_41test_try_from_args_with_valid_ip_and_port
FNDA:1,_RNvNtNtCslE1WvBQdpRb_14my_http_server4test3clis_43test_try_from_args_with_missing_ip_and_port
FNDA:1,_RNvNtNtCslE1WvBQdpRb_14my_http_server4test3clis_46test_config_file_path_no_config_overrides_path
FNDA:1,_RNvNtNtCslE1WvBQdpRb_14my_http_server4test3clis_47test_try_from_owned_args_with_valid_ip_and_port
FNF:12
FNH:12
DA:4,4
DA:5,4
DA:6,4
DA:7,4
DA:8,4
DA:9,4
DA:10,4
DA:11,4
DA:12,4
DA:13,4
DA:14,4
DA:15,4
DA:16,4
DA:17,4
DA:19,4
DA:20,4
DA:21,4
DA:22,4
DA:23,4
DA:24,4
DA:27,4
DA:28,4
DA:29,4
DA:30,4
DA:31,4
DA:32,4
DA:33,4
DA:34,4
DA:35,4
DA:36,4
DA:37,4
DA:38,4
DA:39,4
DA:40,4
DA:42,4
DA:43,4
DA:44,4
DA:45,4
DA:46,4
DA:48,4
DA:51,4
DA:52,4
DA:53,4
DA:54,4
DA:55,4
DA:56,4
DA:57,4
DA:58,4
DA:59,4
DA:60,4
DA:61,4
DA:62,4
DA:63,4
DA:64,4
DA:66,4
DA:67,4
DA:68,4
DA:69,4
DA:70,4
DA:72,4
DA:75,4
DA:76,4
DA:77,4
DA:78,4
DA:79,4
DA:80,4
DA:81,4
DA:82,4
DA:83,4
DA:84,4
DA:85,4
DA:86,4
DA:87,4
DA:88,4
DA:90,4
DA:91,4
DA:92,4
DA:93,4
DA:94,4
DA:96,4
DA:99,4
DA:100,4
DA:101,4
DA:102,4
DA:103,4
DA:104,4
DA:105,4
DA:106,4
DA:107,4
DA:108,4
DA:109,4
DA:110,4
DA:111,4
DA:112,4
DA:114,4
DA:115,4
DA:116,4
DA:117,4
DA:118,4
DA:119,4
DA:122,4
DA:123,4
DA:124,4
DA:125,4
DA:126,4
DA:127,4
DA:128,4
DA:129,4
DA:130,4
DA:131,4
DA:132,4
DA:133,4
DA:134,4
DA:135,4
DA:136,4
DA:137,4
DA:140,4
DA:141,4
DA:142,4
DA:143,4
DA:144,4
DA:145,4
DA:146,4
DA:147,4
DA:148,4
DA:149,4
DA:150,4
DA:151,4
DA:152,4
DA:153,4
DA:154,4
DA:155,4
DA:158,4
DA:159,4
DA:160,4
DA:161,4
DA:162,4
DA:163,4
DA:164,4
DA:165,4
DA:166,4
DA:167,4
DA:168,4
DA:169,4
DA:170,4
DA:171,4
DA:172,4
DA:173,4
DA:176,4
DA:178,4
DA:179,4
DA:180,4
DA:181,4
DA:182,4
DA:183,4
DA:184,4
DA:185,4
DA:186,4
DA:187,4
DA:188,4
DA:189,4
DA:190,4
DA:191,4
DA:192,4
DA:195,4
DA:196,4
DA:197,4
DA:198,4
DA:199,4
DA:200,4
DA:201,4
DA:202,4
DA:203,4
DA:204,4
DA:205,4
DA:206,4
DA:207,4
DA:208,4
DA:210,4
DA:211,4
DA:212,4
DA:215,4
DA:216,4
DA:217,4
DA:218,4
DA:219,4
DA:220,4
DA:221,4
DA:222,4
DA:223,4
DA:224,4
DA:225,4
DA:226,4
DA:227,4
DA:228,4
DA:230,4
DA:231,4
DA:234,4
DA:235,4
DA:236,4
DA:237,4
DA:238,4
DA:239,4
DA:240,4
DA:241,4
DA:242,4
DA:243,4
DA:244,4
DA:245,4
DA:246,4
DA:247,4
DA:249,4
DA:250,4
BRF:0
BRH:0
LF:213
LH:213
end_of_record
SF:C:\Users\pl816\OneDrive\文件\git\my-http-server\src\test\config.rs
FN:20,_RNvNtNtCsJUKjIpJSKG_14my_http_server4test6configs_23test_cofg_addrs_display
FN:312,_RNvNtNtCsJUKjIpJSKG_14my_http_server4test6configs_27test_xdg_config_path_exists
FN:261,_RNvNtNtCsJUKjIpJSKG_14my_http_server4test6configs_28test_config_file_path_helper
FN:354,_RNvNtNtCsJUKjIpJSKG_14my_http_server4test6configs_29test_rate_limiting_validation
FN:29,_RNvNtNtCsJUKjIpJSKG_14my_http_server4test6configs_31test_cofg_addrs_to_socket_addrs
FN:82,_RNvNtNtCsJUKjIpJSKG_14my_http_server4test6configs_33test_layered_config_cli_overrides
FN:164,_RNvNtNtCsJUKjIpJSKG_14my_http_server4test6configs_33test_layered_config_env_variables
FN:201,_RNvNtNtCsJUKjIpJSKG_14my_http_server4test6configs_37test_layered_config_cli_overrides_env
FN:116,_RNvNtNtCsJUKjIpJSKG_14my_http_server4test6configs_37test_layered_config_tls_requires_both
FN:39,_RNvNtNtCsJUKjIpJSKG_14my_http_server4test6configs_38test_cofg_configure_default_extensions
FN:235,_RNvNtNtCsJUKjIpJSKG_14my_http_server4test6configs_38test_config_page_404_path_and_hbs_path
FN:49,_RNvNtNtCsJUKjIpJSKG_14my_http_server4test6configs_44test_layered_config_precedence_defaults_only
FN:13,_RINvNtNtCsJUKjIpJSKG_14my_http_server4test6config13with_env_lockuNCNvB2_s_33test_layered_config_cli_overrides0EB6_
FN:13,_RINvNtNtCsJUKjIpJSKG_14my_http_server4test6config13with_env_lockuNCNvB2_s_33test_layered_config_env_variables0EB6_
FN:13,_RINvNtNtCsJUKjIpJSKG_14my_http_server4test6config13with_env_lockuNCNvB2_s_37test_layered_config_cli_overrides_env0EB6_
FN:13,_RINvNtNtCsJUKjIpJSKG_14my_http_server4test6config13with_env_lockuNCNvB2_s_37test_layered_config_tls_requires_both0EB6_
FN:13,_RINvNtNtCsJUKjIpJSKG_14my_http_server4test6config13with_env_lockuNCNvB2_s_38test_config_page_404_path_and_hbs_path0EB6_
FN:13,_RINvNtNtCsJUKjIpJSKG_14my_http_server4test6config13with_env_lockuNCNvB2_s_44test_layered_config_precedence_defaults_only0EB6_
FN:15,_RNCINvNtNtCsJUKjIpJSKG_14my_http_server4test6config13with_env_lockuNCNvB4_s_33test_layered_config_cli_overrides0E0B8_
FN:15,_RNCINvNtNtCsJUKjIpJSKG_14my_http_server4test6config13with_env_lockuNCNvB4_s_33test_layered_config_env_variables0E0B8_
FN:15,_RNCINvNtNtCsJUKjIpJSKG_14my_http_server4test6config13with_env_lockuNCNvB4_s_37test_layered_config_cli_overrides_env0E0B8_
FN:15,_RNCINvNtNtCsJUKjIpJSKG_14my_http_server4test6config13with_env_lockuNCNvB4_s_37test_layered_config_tls_requires_both0E0B8_
FN:15,_RNCINvNtNtCsJUKjIpJSKG_14my_http_server4test6config13with_env_lockuNCNvB4_s_38test_config_page_404_path_and_hbs_path0E0B8_
FN:15,_RNCINvNtNtCsJUKjIpJSKG_14my_http_server4test6config13with_env_lockuNCNvB4_s_44test_layered_config_precedence_defaults_only0E0B8_
FN:333,_RNCNvNtNtCsJUKjIpJSKG_14my_http_server4test6configs_27test_xdg_config_path_exists0B7_
FN:83,_RNCNvNtNtCsJUKjIpJSKG_14my_http_server4test6configs_33test_layered_config_cli_overrides0B7_
FN:165,_RNCNvNtNtCsJUKjIpJSKG_14my_http_server4test6configs_33test_layered_config_env_variables0B7_
FN:202,_RNCNvNtNtCsJUKjIpJSKG_14my_http_server4test6configs_37test_layered_config_cli_overrides_env0B7_
FN:117,_RNCNvNtNtCsJUKjIpJSKG_14my_http_server4test6configs_37test_layered_config_tls_requires_both0B7_
FN:236,_RNCNvNtNtCsJUKjIpJSKG_14my_http_server4test6configs_38test_config_page_404_path_and_hbs_path0B7_
FN:50,_RNCNvNtNtCsJUKjIpJSKG_14my_http_server4test6configs_44test_layered_config_precedence_defaults_only0B7_
FN:13,_RINvNtNtCsgBNAdYuGUwB_14my_http_server4test6config13with_env_lockuNCNvB2_s_33test_layered_config_cli_overrides0EB6_
FN:13,_RINvNtNtCsgBNAdYuGUwB_14my_http_server4test6config13with_env_lockuNCNvB2_s_33test_layered_config_env_variables0EB6_
FN:13,_RINvNtNtCsgBNAdYuGUwB_14my_http_server4test6config13with_env_lockuNCNvB2_s_37test_layered_config_cli_overrides_env0EB6_
FN:13,_RINvNtNtCsgBNAdYuGUwB_14my_http_server4test6config13with_env_lockuNCNvB2_s_37test_layered_config_tls_requires_both0EB6_
FN:13,_RINvNtNtCsgBNAdYuGUwB_14my_http_server4test6config13with_env_lockuNCNvB2_s_38test_config_page_404_path_and_hbs_path0EB6_
FN:13,_RINvNtNtCsgBNAdYuGUwB_14my_http_server4test6config13with_env_lockuNCNvB2_s_44test_layered_config_precedence_defaults_only0EB6_
FN:15,_RNCINvNtNtCsgBNAdYuGUwB_14my_http_server4test6config13with_env_lockuNCNvB4_s_33test_layered_config_cli_overrides0E0B8_
FN:15,_RNCINvNtNtCsgBNAdYuGUwB_14my_http_server4test6config13with_env_lockuNCNvB4_s_33test_layered_config_env_variables0E0B8_
FN:15,_RNCINvNtNtCsgBNAdYuGUwB_14my_http_server4test6config13with_env_lockuNCNvB4_s_37test_layered_config_cli_overrides_env0E0B8_
FN:15,_RNCINvNtNtCsgBNAdYuGUwB_14my_http_server4test6config13with_env_lockuNCNvB4_s_37test_layered_config_tls_requires_both0E0B8_
FN:15,_RNCINvNtNtCsgBNAdYuGUwB_14my_http_server4test6config13with_env_lockuNCNvB4_s_38test_config_page_404_path_and_hbs_path0E0B8_
FN:15,_RNCINvNtNtCsgBNAdYuGUwB_14my_http_server4test6config13with_env_lockuNCNvB4_s_44test_layered_config_precedence_defaults_only0E0B8_
FN:333,_RNCNvNtNtCsgBNAdYuGUwB_14my_http_server4test6configs_27test_xdg_config_path_exists0B7_
FN:83,_RNCNvNtNtCsgBNAdYuGUwB_14my_http_server4test6configs_33test_layered_config_cli_overrides0B7_
FN:165,_RNCNvNtNtCsgBNAdYuGUwB_14my_http_server4test6configs_33test_layered_config_env_variables0B7_
FN:202,_RNCNvNtNtCsgBNAdYuGUwB_14my_http_server4test6configs_37test_layered_config_cli_overrides_env0B7_
FN:117,_RNCNvNtNtCsgBNAdYuGUwB_14my_http_server4test6configs_37test_layered_config_tls_requires_both0B7_
FN:236,_RNCNvNtNtCsgBNAdYuGUwB_14my_http_server4test6configs_38test_config_page_404_path_and_hbs_path0B7_
FN:50,_RNCNvNtNtCsgBNAdYuGUwB_14my_http_server4test6configs_44test_layered_config_precedence_defaults_only0B7_
FN:20,_RNvNtNtCsgBNAdYuGUwB_14my_http_server4test6configs_23test_cofg_addrs_display
FN:312,_RNvNtNtCsgBNAdYuGUwB_14my_http_server4test6configs_27test_xdg_config_path_exists
FN:261,_RNvNtNtCsgBNAdYuGUwB_14my_http_server4test6configs_28test_config_file_path_helper
FN:354,_RNvNtNtCsgBNAdYuGUwB_14my_http_server4test6configs_29test_rate_limiting_validation
FN:29,_RNvNtNtCsgBNAdYuGUwB_14my_http_server4test6configs_31test_cofg_addrs_to_socket_addrs
FN:82,_RNvNtNtCsgBNAdYuGUwB_14my_http_server4test6configs_33test_layered_config_cli_overrides
FN:164,_RNvNtNtCsgBNAdYuGUwB_14my_http_server4test6configs_33test_layered_config_env_variables
FN:201,_RNvNtNtCsgBNAdYuGUwB_14my_http_server4test6configs_37test_layered_config_cli_overrides_env
FN:116,_RNvNtNtCsgBNAdYuGUwB_14my_http_server4test6configs_37test_layered_config_tls_requires_both
FN:39,_RNvNtNtCsgBNAdYuGUwB_14my_http_server4test6configs_38test_cofg_configure_default_extensions
FN:235,_RNvNtNtCsgBNAdYuGUwB_14my_http_server4test6configs_38test_config_page_404_path_and_hbs_path
FN:49,_RNvNtNtCsgBNAdYuGUwB_14my_http_server4test6configs_44test_layered_config_precedence_defaults_only
FN:20,_RNvNtNtCs9ofXrUXFSdM_14my_http_server4test6configs_23test_cofg_addrs_display
FN:312,_RNvNtNtCs9ofXrUXFSdM_14my_http_server4test6configs_27test_xdg_config_path_exists
FN:261,_RNvNtNtCs9ofXrUXFSdM_14my_http_server4test6configs_28test_config_file_path_helper
FN:354,_RNvNtNtCs9ofXrUXFSdM_14my_http_server4test6configs_29test_rate_limiting_validation
FN:29,_RNvNtNtCs9ofXrUXFSdM_14my_http_server4test6configs_31test_cofg_addrs_to_socket_addrs
FN:82,_RNvNtNtCs9ofXrUXFSdM_14my_http_server4test6configs_33test_layered_config_cli_overrides
FN:164,_RNvNtNtCs9ofXrUXFSdM_14my_http_server4test6configs_33test_layered_config_env_variables
FN:201,_RNvNtNtCs9ofXrUXFSdM_14my_http_server4test6configs_37test_layered_config_cli_overrides_env
FN:116,_RNvNtNtCs9ofXrUXFSdM_14my_http_server4test6configs_37test_layered_config_tls_requires_both
FN:39,_RNvNtNtCs9ofXrUXFSdM_14my_http_server4test6configs_38test_cofg_configure_default_extensions
FN:235,_RNvNtNtCs9ofXrUXFSdM_14my_http_server4test6configs_38test_config_page_404_path_and_hbs_path
FN:49,_RNvNtNtCs9ofXrUXFSdM_14my_http_server4test6configs_44test_layered_config_precedence_defaults_only
FN:13,_RINvNtNtCs9ofXrUXFSdM_14my_http_server4test6config13with_env_lockuNCNvB2_s_33test_layered_config_cli_overrides0EB6_
FN:13,_RINvNtNtCs9ofXrUXFSdM_14my_http_server4test6config13with_env_lockuNCNvB2_s_33test_layered_config_env_variables0EB6_
FN:13,_RINvNtNtCs9ofXrUXFSdM_14my_http_server4test6config13with_env_lockuNCNvB2_s_37test_layered_config_cli_overrides_env0EB6_
FN:13,_RINvNtNtCs9ofXrUXFSdM_14my_http_server4test6config13with_env_lockuNCNvB2_s_37test_layered_config_tls_requires_both0EB6_
FN:13,_RINvNtNtCs9ofXrUXFSdM_14my_http_server4test6config13with_env_lockuNCNvB2_s_38test_config_page_404_path_and_hbs_path0EB6_
FN:13,_RINvNtNtCs9ofXrUXFSdM_14my_http_server4test6config13with_env_lockuNCNvB2_s_44test_layered_config_precedence_defaults_only0EB6_
FN:15,_RNCINvNtNtCs9ofXrUXFSdM_14my_http_server4test6config13with_env_lockuNCNvB4_s_33test_layered_config_cli_overrides0E0B8_
FN:15,_RNCINvNtNtCs9ofXrUXFSdM_14my_http_server4test6config13with_env_lockuNCNvB4_s_33test_layered_config_env_variables0E0B8_
FN:15,_RNCINvNtNtCs9ofXrUXFSdM_14my_http_server4test6config13with_env_lockuNCNvB4_s_37test_layered_config_cli_overrides_env0E0B8_
FN:15,_RNCINvNtNtCs9ofXrUXFSdM_14my_http_server4test6config13with_env_lockuNCNvB4_s_37test_layered_config_tls_requires_both0E0B8_
FN:15,_RNCINvNtNtCs9ofXrUXFSdM_14my_http_server4test6config13with_env_lockuNCNvB4_s_38test_config_page_404_path_and_hbs_path0E0B8_
FN:15,_RNCINvNtNtCs9ofXrUXFSdM_14my_http_server4test6config13with_env_lockuNCNvB4_s_44test_layered_config_precedence_defaults_only0E0B8_
FN:333,_RNCNvNtNtCs9ofXrUXFSdM_14my_http_server4test6configs_27test_xdg_config_path_exists0B7_
FN:83,_RNCNvNtNtCs9ofXrUXFSdM_14my_http_server4test6configs_33test_layered_config_cli_overrides0B7_
FN:165,_RNCNvNtNtCs9ofXrUXFSdM_14my_http_server4test6configs_33test_layered_config_env_variables0B7_
FN:202,_RNCNvNtNtCs9ofXrUXFSdM_14my_http_server4test6configs_37test_layered_config_cli_overrides_env0B7_
FN:117,_RNCNvNtNtCs9ofXrUXFSdM_14my_http_server4test6configs_37test_layered_config_tls_requires_both0B7_
FN:236,_RNCNvNtNtCs9ofXrUXFSdM_14my_http_server4test6configs_38test_config_page_404_path_and_hbs_path0B7_
FN:50,_RNCNvNtNtCs9ofXrUXFSdM_14my_http_server4test6configs_44test_layered_config_precedence_defaults_only0B7_
FN:13,_RINvNtNtCslE1WvBQdpRb_14my_http_server4test6config13with_env_lockuNCNvB2_s_33test_layered_config_cli_overrides0EB6_
FN:13,_RINvNtNtCslE1WvBQdpRb_14my_http_server4test6config13with_env_lockuNCNvB2_s_33test_layered_config_env_variables0EB6_
FN:13,_RINvNtNtCslE1WvBQdpRb_14my_http_server4test6config13with_env_lockuNCNvB2_s_37test_layered_config_cli_overrides_env0EB6_
FN:13,_RINvNtNtCslE1WvBQdpRb_14my_http_server4test6config13with_env_lockuNCNvB2_s_37test_layered_config_tls_requires_both0EB6_
FN:13,_RINvNtNtCslE1WvBQdpRb_14my_http_server4test6config13with_env_lockuNCNvB2_s_38test_config_page_404_path_and_hbs_path0EB6_
FN:13,_RINvNtNtCslE1WvBQdpRb_14my_http_server4test6config13with_env_lockuNCNvB2_s_44test_layered_config_precedence_defaults_only0EB6_
FN:15,_RNCINvNtNtCslE1WvBQdpRb_14my_http_server4test6config13with_env_lockuNCNvB4_s_33test_layered_config_cli_overrides0E0B8_
FN:15,_RNCINvNtNtCslE1WvBQdpRb_14my_http_server4test6config13with_env_lockuNCNvB4_s_33test_layered_config_env_variables0E0B8_
FN:15,_RNCINvNtNtCslE1WvBQdpRb_14my_http_server4test6config13with_env_lockuNCNvB4_s_37test_layered_config_cli_overrides_env0E0B8_
FN:15,_RNCINvNtNtCslE1WvBQdpRb_14my_http_server4test6config13with_env_lockuNCNvB4_s_37test_layered_config_tls_requires_both0E0B8_
FN:15,_RNCINvNtNtCslE1WvBQdpRb_14my_http_server4test6config13with_env_lockuNCNvB4_s_38test_config_page_404_path_and_hbs_path0E0B8_
FN:15,_RNCINvNtNtCslE1WvBQdpRb_14my_http_server4test6config13with_env_lockuNCNvB4_s_44test_layered_config_precedence_defaults_only0E0B8_
FN:333,_RNCNvNtNtCslE1WvBQdpRb_14my_http_server4test6configs_27test_xdg_config_path_exists0B7_
FN:83,_RNCNvNtNtCslE1WvBQdpRb_14my_http_server4test6configs_33test_layered_config_cli_overrides0B7_
FN:165,_RNCNvNtNtCslE1WvBQdpRb_14my_http_server4test6configs_33test_layered_config_env_variables0B7_
FN:202,_RNCNvNtNtCslE1WvBQdpRb_14my_http_server4test6configs_37test_layered_config_cli_overrides_env0B7_
FN:117,_RNCNvNtNtCslE1WvBQdpRb_14my_http_server4test6configs_37test_layered_config_tls_requires_both0B7_
FN:236,_RNCNvNtNtCslE1WvBQdpRb_14my_http_server4test6configs_38test_config_page_404_path_and_hbs_path0B7_
FN:50,_RNCNvNtNtCslE1WvBQdpRb_14my_http_server4test6configs_44test_layered_config_precedence_defaults_only0B7_
FN:20,_RNvNtNtCslE1WvBQdpRb_14my_http_server4test6configs_23test_cofg_addrs_display
FN:312,_RNvNtNtCslE1WvBQdpRb_14my_http_server4test6configs_27test_xdg_config_path_exists
FN:261,_RNvNtNtCslE1WvBQdpRb_14my_http_server4test6configs_28test_config_file_path_helper
FN:354,_RNvNtNtCslE1WvBQdpRb_14my_http_server4test6configs_29test_rate_limiting_validation
FN:29,_RNvNtNtCslE1WvBQdpRb_14my_http_server4test6configs_31test_cofg_addrs_to_socket_addrs
FN:82,_RNvNtNtCslE1WvBQdpRb_14my_http_server4test6configs_33test_layered_config_cli_overrides
FN:164,_RNvNtNtCslE1WvBQdpRb_14my_http_server4test6configs_33test_layered_config_env_variables
FN:201,_RNvNtNtCslE1WvBQdpRb_14my_http_server4test6configs_37test_layered_config_cli_overrides_env
FN:116,_RNvNtNtCslE1WvBQdpRb_14my_http_server4test6configs_37test_layered_config_tls_requires_both
FN:39,_RNvNtNtCslE1WvBQdpRb_14my_http_server4test6configs_38test_cofg_configure_default_extensions
FN:235,_RNvNtNtCslE1WvBQdpRb_14my_http_server4test6configs_38test_config_page_404_path_and_hbs_path
FN:49,_RNvNtNtCslE1WvBQdpRb_14my_http_server4test6configs_44test_layered_config_precedence_defaults_only
FNDA:1,_RNvNtNtCsJUKjIpJSKG_14my_http_server4test6configs_23test_cofg_addrs_display
FNDA:1,_RNvNtNtCsJUKjIpJSKG_14my_http_server4test6configs_27test_xdg_config_path_exists
FNDA:1,_RNvNtNtCsJUKjIpJSKG_14my_http_server4test6configs_28test_config_file_path_helper
FNDA:1,_RNvNtNtCsJUKjIpJSKG_14my_http_server4test6configs_29test_rate_limiting_validation
FNDA:1,_RNvNtNtCsJUKjIpJSKG_14my_http_server4test6configs_31test_cofg_addrs_to_socket_addrs
FNDA:1,_RNvNtNtCsJUKjIpJSKG_14my_http_server4test6configs_33test_layered_config_cli_overrides
FNDA:1,_RNvNtNtCsJUKjIpJSKG_14my_http_server4test6configs_33test_layered_config_env_variables
FNDA:1,_RNvNtNtCsJUKjIpJSKG_14my_http_server4test6configs_37test_layered_config_cli_overrides_env
FNDA:1,_RNvNtNtCsJUKjIpJSKG_14my_http_server4test6configs_37test_layered_config_tls_requires_both
FNDA:1,_RNvNtNtCsJUKjIpJSKG_14my_http_server4test6configs_38test_cofg_configure_default_extensions
FNDA:1,_RNvNtNtCsJUKjIpJSKG_14my_http_server4test6configs_38test_config_page_404_path_and_hbs_path
FNDA:1,_RNvNtNtCsJUKjIpJSKG_14my_http_server4test6configs_44test_layered_config_precedence_defaults_only
FNDA:1,_RINvNtNtCsJUKjIpJSKG_14my_http_server4test6config13with_env_lockuNCNvB2_s_33test_layered_config_cli_overrides0EB6_
FNDA:1,_RINvNtNtCsJUKjIpJSKG_14my_http_server4test6config13with_env_lockuNCNvB2_s_33test_layered_config_env_variables0EB6_
FNDA:1,_RINvNtNtCsJUKjIpJSKG_14my_http_server4test6config13with_env_lockuNCNvB2_s_37test_layered_config_cli_overrides_env0EB6_
FNDA:1,_RINvNtNtCsJUKjIpJSKG_14my_http_server4test6config13with_env_lockuNCNvB2_s_37test_layered_config_tls_requires_both0EB6_
FNDA:1,_RINvNtNtCsJUKjIpJSKG_14my_http_server4test6config13with_env_lockuNCNvB2_s_38test_config_page_404_path_and_hbs_path0EB6_
FNDA:1,_RINvNtNtCsJUKjIpJSKG_14my_http_server4test6config13with_env_lockuNCNvB2_s_44test_layered_config_precedence_defaults_only0EB6_
FNDA:1,_RNCINvNtNtCsJUKjIpJSKG_14my_http_server4test6config13with_env_lockuNCNvB4_s_33test_layered_config_cli_overrides0E0B8_
FNDA:1,_RNCINvNtNtCsJUKjIpJSKG_14my_http_server4test6config13with_env_lockuNCNvB4_s_33test_layered_config_env_variables0E0B8_
FNDA:1,_RNCINvNtNtCsJUKjIpJSKG_14my_http_server4test6config13with_env_lockuNCNvB4_s_37test_layered_config_cli_overrides_env0E0B8_
FNDA:1,_RNCINvNtNtCsJUKjIpJSKG_14my_http_server4test6config13with_env_lockuNCNvB4_s_37test_layered_config_tls_requires_both0E0B8_
FNDA:1,_RNCINvNtNtCsJUKjIpJSKG_14my_http_server4test6config13with_env_lockuNCNvB4_s_38test_config_page_404_path_and_hbs_path0E0B8_
FNDA:1,_RNCINvNtNtCsJUKjIpJSKG_14my_http_server4test6config13with_env_lockuNCNvB4_s_44test_layered_config_precedence_defaults_only0E0B8_
FNDA:1,_RNCNvNtNtCsJUKjIpJSKG_14my_http_server4test6configs_27test_xdg_config_path_exists0B7_
FNDA:1,_RNCNvNtNtCsJUKjIpJSKG_14my_http_server4test6configs_33test_layered_config_cli_overrides0B7_
FNDA:1,_RNCNvNtNtCsJUKjIpJSKG_14my_http_server4test6configs_33test_layered_config_env_variables0B7_
FNDA:1,_RNCNvNtNtCsJUKjIpJSKG_14my_http_server4test6configs_37test_layered_config_cli_overrides_env0B7_
FNDA:1,_RNCNvNtNtCsJUKjIpJSKG_14my_http_server4test6configs_37test_layered_config_tls_requires_both0B7_
FNDA:1,_RNCNvNtNtCsJUKjIpJSKG_14my_http_server4test6configs_38test_config_page_404_path_and_hbs_path0B7_
FNDA:1,_RNCNvNtNtCsJUKjIpJSKG_14my_http_server4test6configs_44test_layered_config_precedence_defaults_only0B7_
FNDA:1,_RINvNtNtCsgBNAdYuGUwB_14my_http_server4test6config13with_env_lockuNCNvB2_s_33test_layered_config_cli_overrides0EB6_
FNDA:1,_RINvNtNtCsgBNAdYuGUwB_14my_http_server4test6config13with_env_lockuNCNvB2_s_33test_layered_config_env_variables0EB6_
FNDA:1,_RINvNtNtCsgBNAdYuGUwB_14my_http_server4test6config13with_env_lockuNCNvB2_s_37test_layered_config_cli_overrides_env0EB6_
FNDA:1,_RINvNtNtCsgBNAdYuGUwB_14my_http_server4test6config13with_env_lockuNCNvB2_s_37test_layered_config_tls_requires_both0EB6_
FNDA:1,_RINvNtNtCsgBNAdYuGUwB_14my_http_server4test6config13with_env_lockuNCNvB2_s_38test_config_page_404_path_and_hbs_path0EB6_
FNDA:1,_RINvNtNtCsgBNAdYuGUwB_14my_http_server4test6config13with_env_lockuNCNvB2_s_44test_layered_config_precedence_defaults_only0EB6_
FNDA:1,_RNCINvNtNtCsgBNAdYuGUwB_14my_http_server4test6config13with_env_lockuNCNvB4_s_33test_layered_config_cli_overrides0E0B8_
FNDA:1,_RNCINvNtNtCsgBNAdYuGUwB_14my_http_server4test6config13with_env_lockuNCNvB4_s_33test_layered_config_env_variables0E0B8_
FNDA:1,_RNCINvNtNtCsgBNAdYuGUwB_14my_http_server4test6config13with_env_lockuNCNvB4_s_37test_layered_config_cli_overrides_env0E0B8_
FNDA:1,_RNCINvNtNtCsgBNAdYuGUwB_14my_http_server4test6config13with_env_lockuNCNvB4_s_37test_layered_config_tls_requires_both0E0B8_
FNDA:1,_RNCINvNtNtCsgBNAdYuGUwB_14my_http_server4test6config13with_env_lockuNCNvB4_s_38test_config_page_404_path_and_hbs_path0E0B8_
FNDA:1,_RNCINvNtNtCsgBNAdYuGUwB_14my_http_server4test6config13with_env_lockuNCNvB4_s_44test_layered_config_precedence_defaults_only0E0B8_
FNDA:1,_RNCNvNtNtCsgBNAdYuGUwB_14my_http_server4test6configs_27test_xdg_config_path_exists0B7_
FNDA:1,_RNCNvNtNtCsgBNAdYuGUwB_14my_http_server4test6configs_33test_layered_config_cli_overrides0B7_
FNDA:1,_RNCNvNtNtCsgBNAdYuGUwB_14my_http_server4test6configs_33test_layered_config_env_variables0B7_
FNDA:1,_RNCNvNtNtCsgBNAdYuGUwB_14my_http_server4test6configs_37test_layered_config_cli_overrides_env0B7_
FNDA:1,_RNCNvNtNtCsgBNAdYuGUwB_14my_http_server4test6configs_37test_layered_config_tls_requires_both0B7_
FNDA:1,_RNCNvNtNtCsgBNAdYuGUwB_14my_http_server4test6configs_38test_config_page_404_path_and_hbs_path0B7_
FNDA:1,_RNCNvNtNtCsgBNAdYuGUwB_14my_http_server4test6configs_44test_layered_config_precedence_defaults_only0B7_
FNDA:1,_RNvNtNtCsgBNAdYuGUwB_14my_http_server4test6configs_23test_cofg_addrs_display
FNDA:1,_RNvNtNtCsgBNAdYuGUwB_14my_http_server4test6configs_27test_xdg_config_path_exists
FNDA:1,_RNvNtNtCsgBNAdYuGUwB_14my_http_server4test6configs_28test_config_file_path_helper
FNDA:1,_RNvNtNtCsgBNAdYuGUwB_14my_http_server4test6configs_29test_rate_limiting_validation
FNDA:1,_RNvNtNtCsgBNAdYuGUwB_14my_http_server4test6configs_31test_cofg_addrs_to_socket_addrs
FNDA:1,_RNvNtNtCsgBNAdYuGUwB_14my_http_server4test6configs_33test_layered_config_cli_overrides
FNDA:1,_RNvNtNtCsgBNAdYuGUwB_14my_http_server4test6configs_33test_layered_config_env_variables
FNDA:1,_RNvNtNtCsgBNAdYuGUwB_14my_http_server4test6configs_37test_layered_config_cli_overrides_env
FNDA:1,_RNvNtNtCsgBNAdYuGUwB_14my_http_server4test6configs_37test_layered_config_tls_requires_both
FNDA:1,_RNvNtNtCsgBNAdYuGUwB_14my_http_server4test6configs_38test_cofg_configure_default_extensions
FNDA:1,_RNvNtNtCsgBNAdYuGUwB_14my_http_server4test6configs_38test_config_page_404_path_and_hbs_path
FNDA:1,_RNvNtNtCsgBNAdYuGUwB_14my_http_server4test6configs_44test_layered_config_precedence_defaults_only
FNDA:1,_RNvNtNtCs9ofXrUXFSdM_14my_http_server4test6configs_23test_cofg_addrs_display
FNDA:1,_RNvNtNtCs9ofXrUXFSdM_14my_http_server4test6configs_27test_xdg_config_path_exists
FNDA:1,_RNvNtNtCs9ofXrUXFSdM_14my_http_server4test6configs_28test_config_file_path_helper
FNDA:1,_RNvNtNtCs9ofXrUXFSdM_14my_http_server4test6configs_29test_rate_limiting_validation
FNDA:1,_RNvNtNtCs9ofXrUXFSdM_14my_http_server4test6configs_31test_cofg_addrs_to_socket_addrs
FNDA:1,_RNvNtNtCs9ofXrUXFSdM_14my_http_server4test6configs_33test_layered_config_cli_overrides
FNDA:1,_RNvNtNtCs9ofXrUXFSdM_14my_http_server4test6configs_33test_layered_config_env_variables
FNDA:1,_RNvNtNtCs9ofXrUXFSdM_14my_http_server4test6configs_37test_layered_config_cli_overrides_env
FNDA:1,_RNvNtNtCs9ofXrUXFSdM_14my_http_server4test6configs_37test_layered_config_tls_requires_both
FNDA:1,_RNvNtNtCs9ofXrUXFSdM_14my_http_server4test6configs_38test_cofg_configure_default_extensions
FNDA:1,_RNvNtNtCs9ofXrUXFSdM_14my_http_server4test6configs_38test_config_page_404_path_and_hbs_path
FNDA:1,_RNvNtNtCs9ofXrUXFSdM_14my_http_server4test6configs_44test_layered_config_precedence_defaults_only
FNDA:1,_RINvNtNtCs9ofXrUXFSdM_14my_http_server4test6config13with_env_lockuNCNvB2_s_33test_layered_config_cli_overrides0EB6_
FNDA:1,_RINvNtNtCs9ofXrUXFSdM_14my_http_server4test6config13with_env_lockuNCNvB2_s_33test_layered_config_env_variables0EB6_
FNDA:1,_RINvNtNtCs9ofXrUXFSdM_14my_http_server4test6config13with_env_lockuNCNvB2_s_37test_layered_config_cli_overrides_env0EB6_
FNDA:1,_RINvNtNtCs9ofXrUXFSdM_14my_http_server4test6config13with_env_lockuNCNvB2_s_37test_layered_config_tls_requires_both0EB6_
FNDA:1,_RINvNtNtCs9ofXrUXFSdM_14my_http_server4test6config13with_env_lockuNCNvB2_s_38test_config_page_404_path_and_hbs_path0EB6_
FNDA:1,_RINvNtNtCs9ofXrUXFSdM_14my_http_server4test6config13with_env_lockuNCNvB2_s_44test_layered_config_precedence_defaults_only0EB6_
FNDA:1,_RNCINvNtNtCs9ofXrUXFSdM_14my_http_server4test6config13with_env_lockuNCNvB4_s_33test_layered_config_cli_overrides0E0B8_
FNDA:1,_RNCINvNtNtCs9ofXrUXFSdM_14my_http_server4test6config13with_env_lockuNCNvB4_s_33test_layered_config_env_variables0E0B8_
FNDA:1,_RNCINvNtNtCs9ofXrUXFSdM_14my_http_server4test6config13with_env_lockuNCNvB4_s_37test_layered_config_cli_overrides_env0E0B8_
FNDA:1,_RNCINvNtNtCs9ofXrUXFSdM_14my_http_server4test6config13with_env_lockuNCNvB4_s_37test_layered_config_tls_requires_both0E0B8_
FNDA:1,_RNCINvNtNtCs9ofXrUXFSdM_14my_http_server4test6config13with_env_lockuNCNvB4_s_38test_config_page_404_path_and_hbs_path0E0B8_
FNDA:1,_RNCINvNtNtCs9ofXrUXFSdM_14my_http_server4test6config13with_env_lockuNCNvB4_s_44test_layered_config_precedence_defaults_only0E0B8_
FNDA:1,_RNCNvNtNtCs9ofXrUXFSdM_14my_http_server4test6configs_27test_xdg_config_path_exists0B7_
FNDA:1,_RNCNvNtNtCs9ofXrUXFSdM_14my_http_server4test6configs_33test_layered_config_cli_overrides0B7_
FNDA:1,_RNCNvNtNtCs9ofXrUXFSdM_14my_http_server4test6configs_33test_layered_config_env_variables0B7_
FNDA:1,_RNCNvNtNtCs9ofXrUXFSdM_14my_http_server4test6configs_37test_layered_config_cli_overrides_env0B7_
FNDA:1,_RNCNvNtNtCs9ofXrUXFSdM_14my_http_server4test6configs_37test_layered_config_tls_requires_both0B7_
FNDA:1,_RNCNvNtNtCs9ofXrUXFSdM_14my_http_server4test6configs_38test_config_page_404_path_and_hbs_path0B7_
FNDA:1,_RNCNvNtNtCs9ofXrUXFSdM_14my_http_server4test6configs_44test_layered_config_precedence_defaults_only0B7_
FNDA:1,_RINvNtNtCslE1WvBQdpRb_14my_http_server4test6config13with_env_lockuNCNvB2_s_33test_layered_config_cli_overrides0EB6_
FNDA:1,_RINvNtNtCslE1WvBQdpRb_14my_http_server4test6config13with_env_lockuNCNvB2_s_33test_layered_config_env_variables0EB6_
FNDA:1,_RINvNtNtCslE1WvBQdpRb_14my_http_server4test6config13with_env_lockuNCNvB2_s_37test_layered_config_cli_overrides_env0EB6_
FNDA:1,_RINvNtNtCslE1WvBQdpRb_14my_http_server4test6config13with_env_lockuNCNvB2_s_37test_layered_config_tls_requires_both0EB6_
FNDA:1,_RINvNtNtCslE1WvBQdpRb_14my_http_server4test6config13with_env_lockuNCNvB2_s_38test_config_page_404_path_and_hbs_path0EB6_
FNDA:1,_RINvNtNtCslE1WvBQdpRb_14my_http_server4test6config13with_env_lockuNCNvB2_s_44test_layered_config_precedence_defaults_only0EB6_
FNDA:1,_RNCINvNtNtCslE1WvBQdpRb_14my_http_server4test6config13with_env_lockuNCNvB4_s_33test_layered_config_cli_overrides0E0B8_
FNDA:1,_RNCINvNtNtCslE1WvBQdpRb_14my_http_server4test6config13with_env_lockuNCNvB4_s_33test_layered_config_env_variables0E0B8_
FNDA:1,_RNCINvNtNtCslE1WvBQdpRb_14my_http_server4test6config13with_env_lockuNCNvB4_s_37test_layered_config_cli_overrides_env0E0B8_
FNDA:1,_RNCINvNtNtCslE1WvBQdpRb_14my_http_server4test6config13with_env_lockuNCNvB4_s_37test_layered_config_tls_requires_both0E0B8_
FNDA:1,_RNCINvNtNtCslE1WvBQdpRb_14my_http_server4test6config13with_env_lockuNCNvB4_s_38test_config_page_404_path_and_hbs_path0E0B8_
FNDA:1,_RNCINvNtNtCslE1WvBQdpRb_14my_http_server4test6config13with_env_lockuNCNvB4_s_44test_layered_config_precedence_defaults_only0E0B8_
FNDA:1,_RNCNvNtNtCslE1WvBQdpRb_14my_http_server4test6configs_27test_xdg_config_path_exists0B7_
FNDA:1,_RNCNvNtNtCslE1WvBQdpRb_14my_http_server4test6configs_33test_layered_config_cli_overrides0B7_
FNDA:1,_RNCNvNtNtCslE1WvBQdpRb_14my_http_server4test6configs_33test_layered_config_env_variables0B7_
FNDA:1,_RNCNvNtNtCslE1WvBQdpRb_14my_http_server4test6configs_37test_layered_config_cli_overrides_env0B7_
FNDA:1,_RNCNvNtNtCslE1WvBQdpRb_14my_http_server4test6configs_37test_layered_config_tls_requires_both0B7_
FNDA:1,_RNCNvNtNtCslE1WvBQdpRb_14my_http_server4test6configs_38test_config_page_404_path_and_hbs_path0B7_
FNDA:1,_RNCNvNtNtCslE1WvBQdpRb_14my_http_server4test6configs_44test_layered_config_precedence_defaults_only0B7_
FNDA:1,_RNvNtNtCslE1WvBQdpRb_14my_http_server4test6configs_23test_cofg_addrs_display
FNDA:1,_RNvNtNtCslE1WvBQdpRb_14my_http_server4test6configs_27test_xdg_config_path_exists
FNDA:1,_RNvNtNtCslE1WvBQdpRb_14my_http_server4test6configs_28test_config_file_path_helper
FNDA:1,_RNvNtNtCslE1WvBQdpRb_14my_http_server4test6configs_29test_rate_limiting_validation
FNDA:1,_RNvNtNtCslE1WvBQdpRb_14my_http_server4test6configs_31test_cofg_addrs_to_socket_addrs
FNDA:1,_RNvNtNtCslE1WvBQdpRb_14my_http_server4test6configs_33test_layered_config_cli_overrides
FNDA:1,_RNvNtNtCslE1WvBQdpRb_14my_http_server4test6configs_33test_layered_config_env_variables
FNDA:1,_RNvNtNtCslE1WvBQdpRb_14my_http_server4test6configs_37test_layered_config_cli_overrides_env
FNDA:1,_RNvNtNtCslE1WvBQdpRb_14my_http_server4test6configs_37test_layered_config_tls_requires_both
FNDA:1,_RNvNtNtCslE1WvBQdpRb_14my_http_server4test6configs_38test_cofg_configure_default_extensions
FNDA:1,_RNvNtNtCslE1WvBQdpRb_14my_http_server4test6configs_38test_config_page_404_path_and_hbs_path
FNDA:1,_RNvNtNtCslE1WvBQdpRb_14my_http_server4test6configs_44test_layered_config_precedence_defaults_only
FNF:21
FNH:21
DA:13,24
DA:15,24
DA:16,24
DA:17,24
DA:20,4
DA:21,4
DA:22,4
DA:23,4
DA:24,4
DA:25,4
DA:26,4
DA:29,4
DA:30,4
DA:31,4
DA:32,4
DA:33,4
DA:34,4
DA:35,4
DA:36,4
DA:37,4
DA:39,4
DA:40,4
DA:41,4
DA:42,4
DA:43,4
DA:44,4
DA:45,4
DA:46,4
DA:49,4
DA:50,4
DA:52,4
DA:53,4
DA:54,4
DA:55,4
DA:58,4
DA:59,4
DA:60,4
DA:61,4
DA:62,4
DA:63,4
DA:64,4
DA:65,4
DA:66,4
DA:67,4
DA:68,4
DA:69,4
DA:70,4
DA:72,4
DA:75,4
DA:76,4
DA:77,4
DA:78,4
DA:79,4
DA:82,4
DA:83,4
DA:85,4
DA:86,4
DA:87,4
DA:88,4
DA:91,4
DA:92,4
DA:93,4
DA:94,4
DA:95,4
DA:96,4
DA:97,4
DA:98,4
DA:99,4
DA:100,4
DA:101,4
DA:102,4
DA:103,4
DA:105,4
DA:108,4
DA:109,4
DA:110,4
DA:111,4
DA:112,4
DA:113,4
DA:116,4
DA:117,4
DA:119,4
DA:120,4
DA:121,4
DA:122,4
DA:125,4
DA:126,4
DA:127,4
DA:128,4
DA:129,4
DA:130,4
DA:131,4
DA:132,4
DA:133,4
DA:134,4
DA:135,4
DA:136,4
DA:137,4
DA:139,4
DA:140,4
DA:142,4
DA:143,4
DA:144,4
DA:145,4
DA:146,4
DA:147,4
DA:148,4
DA:149,4
DA:150,4
DA:151,4
DA:152,4
DA:153,4
DA:154,4
DA:156,4
DA:157,4
DA:158,4
DA:159,4
DA:160,4
DA:161,4
DA:164,4
DA:165,4
DA:167,4
DA:168,4
DA:169,4
DA:170,4
DA:172,4
DA:173,4
DA:174,4
DA:175,4
DA:176,4
DA:177,4
DA:178,4
DA:179,4
DA:180,4
DA:181,4
DA:182,4
DA:183,4
DA:184,4
DA:186,4
DA:189,4
DA:190,4
DA:193,4
DA:194,4
DA:195,4
DA:196,4
DA:197,4
DA:198,4
DA:201,4
DA:202,4
DA:204,4
DA:205,4
DA:206,4
DA:208,4
DA:209,4
DA:210,4
DA:211,4
DA:212,4
DA:213,4
DA:214,4
DA:215,4
DA:216,4
DA:217,4
DA:218,4
DA:219,4
DA:220,4
DA:222,4
DA:225,4
DA:228,4
DA:229,4
DA:230,4
DA:231,4
DA:232,4
DA:235,4
DA:236,4
DA:238,4
DA:239,4
DA:240,4
DA:241,4
DA:242,4
DA:243,4
DA:244,4
DA:245,4
DA:246,4
DA:247,4
DA:248,4
DA:249,4
DA:250,4
DA:252,4
DA:255,4
DA:256,4
DA:257,4
DA:258,4
DA:261,4
DA:263,4
DA:264,4
DA:265,4
DA:266,4
DA:267,4
DA:268,4
DA:269,4
DA:270,4
DA:271,4
DA:272,4
DA:273,4
DA:274,4
DA:275,4
DA:276,4
DA:279,4
DA:280,4
DA:281,4
DA:282,4
DA:283,4
DA:284,4
DA:285,4
DA:286,4
DA:287,4
DA:288,4
DA:289,4
DA:290,4
DA:291,4
DA:292,4
DA:295,4
DA:296,4
DA:297,4
DA:298,4
DA:299,4
DA:300,4
DA:301,4
DA:302,4
DA:303,4
DA:304,4
DA:305,4
DA:306,4
DA:307,4
DA:308,4
DA:309,4
DA:312,4
DA:316,4
DA:317,4
DA:318,4
DA:319,4
DA:320,4
DA:321,4
DA:322,4
DA:323,4
DA:324,4
DA:325,4
DA:327,4
DA:328,0
DA:329,0
DA:330,0
DA:333,4
DA:334,4
DA:335,4
DA:336,4
DA:337,4
DA:338,4
DA:339,4
DA:340,4
DA:341,4
DA:342,4
DA:343,4
DA:344,4
DA:345,4
DA:346,4
DA:347,4
DA:348,4
DA:350,4
DA:351,4
DA:354,4
DA:356,4
DA:357,4
DA:358,4
DA:359,4
DA:360,4
DA:361,4
DA:362,4
DA:363,4
DA:364,4
DA:365,4
DA:366,4
DA:367,4
DA:368,4
DA:370,4
DA:373,4
DA:374,4
DA:377,4
DA:379,4
DA:380,4
DA:381,4
BRF:0
BRH:0
LF:298
LH:295
end_of_record
SF:C:\Users\pl816\OneDrive\文件\git\my-http-server\src\test\error.rs
FN:57,_RNvNtNtCsJUKjIpJSKG_14my_http_server4test5errors_16test_other_error
FN:92,_RNvNtNtCsJUKjIpJSKG_14my_http_server4test5errors_19test_app_result_err
FN:25,_RNvNtNtCsJUKjIpJSKG_14my_http_server4test5errors_21test_io_error_display
FN:189,_RNvNtNtCsJUKjIpJSKG_14my_http_server4test5errors_22test_error_from_string
FN:166,_RNvNtNtCsJUKjIpJSKG_14my_http_server4test5errors_23test_error_debug_format
FN:220,_RNvNtNtCsJUKjIpJSKG_14my_http_server4test5errors_23test_result_propagation
FN:14,_RNvNtNtCsJUKjIpJSKG_14my_http_server4test5errors_24test_io_error_conversion
FN:195,_RNvNtNtCsJUKjIpJSKG_14my_http_server4test5errors_25test_config_error_message
FN:35,_RNvNtNtCsJUKjIpJSKG_14my_http_server4test5errors_25test_markdown_parse_error
FN:175,_RNvNtNtCsJUKjIpJSKG_14my_http_server4test5errors_25test_nom_error_conversion
FN:150,_RNvNtNtCsJUKjIpJSKG_14my_http_server4test5errors_26test_error_chain_io_to_app
FN:132,_RNvNtNtCsJUKjIpJSKG_14my_http_server4test5errors_27test_template_error_display
FN:44,_RNvNtNtCsJUKjIpJSKG_14my_http_server4test5errors_28test_config_error_conversion
FN:98,_RNvNtNtCsJUKjIpJSKG_14my_http_server4test5errors_34test_glob_pattern_error_conversion
FN:113,_RNvNtNtCsJUKjIpJSKG_14my_http_server4test5errors_34test_strip_prefix_error_conversion
FN:221,_RNvNvNtNtCsJUKjIpJSKG_14my_http_server4test5errors_23test_result_propagation8inner_fn
FN:225,_RNvNvNtNtCsJUKjIpJSKG_14my_http_server4test5errors_23test_result_propagation8outer_fn
FN:151,_RNvNvNtNtCsJUKjIpJSKG_14my_http_server4test5errors_26test_error_chain_io_to_app8may_fail
FN:57,_RNvNtNtCsgBNAdYuGUwB_14my_http_server4test5errors_16test_other_error
FN:92,_RNvNtNtCsgBNAdYuGUwB_14my_http_server4test5errors_19test_app_result_err
FN:25,_RNvNtNtCsgBNAdYuGUwB_14my_http_server4test5errors_21test_io_error_display
FN:189,_RNvNtNtCsgBNAdYuGUwB_14my_http_server4test5errors_22test_error_from_string
FN:166,_RNvNtNtCsgBNAdYuGUwB_14my_http_server4test5errors_23test_error_debug_format
FN:220,_RNvNtNtCsgBNAdYuGUwB_14my_http_server4test5errors_23test_result_propagation
FN:14,_RNvNtNtCsgBNAdYuGUwB_14my_http_server4test5errors_24test_io_error_conversion
FN:195,_RNvNtNtCsgBNAdYuGUwB_14my_http_server4test5errors_25test_config_error_message
FN:35,_RNvNtNtCsgBNAdYuGUwB_14my_http_server4test5errors_25test_markdown_parse_error
FN:175,_RNvNtNtCsgBNAdYuGUwB_14my_http_server4test5errors_25test_nom_error_conversion
FN:150,_RNvNtNtCsgBNAdYuGUwB_14my_http_server4test5errors_26test_error_chain_io_to_app
FN:132,_RNvNtNtCsgBNAdYuGUwB_14my_http_server4test5errors_27test_template_error_display
FN:44,_RNvNtNtCsgBNAdYuGUwB_14my_http_server4test5errors_28test_config_error_conversion
FN:98,_RNvNtNtCsgBNAdYuGUwB_14my_http_server4test5errors_34test_glob_pattern_error_conversion
FN:113,_RNvNtNtCsgBNAdYuGUwB_14my_http_server4test5errors_34test_strip_prefix_error_conversion
FN:221,_RNvNvNtNtCsgBNAdYuGUwB_14my_http_server4test5errors_23test_result_propagation8inner_fn
FN:225,_RNvNvNtNtCsgBNAdYuGUwB_14my_http_server4test5errors_23test_result_propagation8outer_fn
FN:151,_RNvNvNtNtCsgBNAdYuGUwB_14my_http_server4test5errors_26test_error_chain_io_to_app8may_fail
FN:57,_RNvNtNtCs9ofXrUXFSdM_14my_http_server4test5errors_16test_other_error
FN:92,_RNvNtNtCs9ofXrUXFSdM_14my_http_server4test5errors_19test_app_result_err
FN:25,_RNvNtNtCs9ofXrUXFSdM_14my_http_server4test5errors_21test_io_error_display
FN:189,_RNvNtNtCs9ofXrUXFSdM_14my_http_server4test5errors_22test_error_from_string
FN:166,_RNvNtNtCs9ofXrUXFSdM_14my_http_server4test5errors_23test_error_debug_format
FN:220,_RNvNtNtCs9ofXrUXFSdM_14my_http_server4test5errors_23test_result_propagation
FN:14,_RNvNtNtCs9ofXrUXFSdM_14my_http_server4test5errors_24test_io_error_conversion
FN:195,_RNvNtNtCs9ofXrUXFSdM_14my_http_server4test5errors_25test_config_error_message
FN:35,_RNvNtNtCs9ofXrUXFSdM_14my_http_server4test5errors_25test_markdown_parse_error
FN:175,_RNvNtNtCs9ofXrUXFSdM_14my_http_server4test5errors_25test_nom_error_conversion
FN:150,_RNvNtNtCs9ofXrUXFSdM_14my_http_server4test5errors_26test_error_chain_io_to_app
FN:132,_RNvNtNtCs9ofXrUXFSdM_14my_http_server4test5errors_27test_template_error_display
FN:44,_RNvNtNtCs9ofXrUXFSdM_14my_http_server4test5errors_28test_config_error_conversion
FN:98,_RNvNtNtCs9ofXrUXFSdM_14my_http_server4test5errors_34test_glob_pattern_error_conversion
FN:113,_RNvNtNtCs9ofXrUXFSdM_14my_http_server4test5errors_34test_strip_prefix_error_conversion
FN:221,_RNvNvNtNtCs9ofXrUXFSdM_14my_http_server4test5errors_23test_result_propagation8inner_fn
FN:225,_RNvNvNtNtCs9ofXrUXFSdM_14my_http_server4test5errors_23test_result_propagation8outer_fn
FN:151,_RNvNvNtNtCs9ofXrUXFSdM_14my_http_server4test5errors_26test_error_chain_io_to_app8may_fail
FN:57,_RNvNtNtCslE1WvBQdpRb_14my_http_server4test5errors_16test_other_error
FN:92,_RNvNtNtCslE1WvBQdpRb_14my_http_server4test5errors_19test_app_result_err
FN:25,_RNvNtNtCslE1WvBQdpRb_14my_http_server4test5errors_21test_io_error_display
FN:189,_RNvNtNtCslE1WvBQdpRb_14my_http_server4test5errors_22test_error_from_string
FN:166,_RNvNtNtCslE1WvBQdpRb_14my_http_server4test5errors_23test_error_debug_format
FN:220,_RNvNtNtCslE1WvBQdpRb_14my_http_server4test5errors_23test_result_propagation
FN:14,_RNvNtNtCslE1WvBQdpRb_14my_http_server4test5errors_24test_io_error_conversion
FN:195,_RNvNtNtCslE1WvBQdpRb_14my_http_server4test5errors_25test_config_error_message
FN:35,_RNvNtNtCslE1WvBQdpRb_14my_http_server4test5errors_25test_markdown_parse_error
FN:175,_RNvNtNtCslE1WvBQdpRb_14my_http_server4test5errors_25test_nom_error_conversion
FN:150,_RNvNtNtCslE1WvBQdpRb_14my_http_server4test5errors_26test_error_chain_io_to_app
FN:132,_RNvNtNtCslE1WvBQdpRb_14my_http_server4test5errors_27test_template_error_display
FN:44,_RNvNtNtCslE1WvBQdpRb_14my_http_server4test5errors_28test_config_error_conversion
FN:98,_RNvNtNtCslE1WvBQdpRb_14my_http_server4test5errors_34test_glob_pattern_error_conversion
FN:113,_RNvNtNtCslE1WvBQdpRb_14my_http_server4test5errors_34test_strip_prefix_error_conversion
FN:221,_RNvNvNtNtCslE1WvBQdpRb_14my_http_server4test5errors_23test_result_propagation8inner_fn
FN:225,_RNvNvNtNtCslE1WvBQdpRb_14my_http_server4test5errors_23test_result_propagation8outer_fn
FN:151,_RNvNvNtNtCslE1WvBQdpRb_14my_http_server4test5errors_26test_error_chain_io_to_app8may_fail
FNDA:1,_RNvNtNtCsJUKjIpJSKG_14my_http_server4test5errors_16test_other_error
FNDA:1,_RNvNtNtCsJUKjIpJSKG_14my_http_server4test5errors_19test_app_result_err
FNDA:1,_RNvNtNtCsJUKjIpJSKG_14my_http_server4test5errors_21test_io_error_display
FNDA:1,_RNvNtNtCsJUKjIpJSKG_14my_http_server4test5errors_22test_error_from_string
FNDA:1,_RNvNtNtCsJUKjIpJSKG_14my_http_server4test5errors_23test_error_debug_format
FNDA:1,_RNvNtNtCsJUKjIpJSKG_14my_http_server4test5errors_23test_result_propagation
FNDA:1,_RNvNtNtCsJUKjIpJSKG_14my_http_server4test5errors_24test_io_error_conversion
FNDA:1,_RNvNtNtCsJUKjIpJSKG_14my_http_server4test5errors_25test_config_error_message
FNDA:1,_RNvNtNtCsJUKjIpJSKG_14my_http_server4test5errors_25test_markdown_parse_error
FNDA:1,_RNvNtNtCsJUKjIpJSKG_14my_http_server4test5errors_25test_nom_error_conversion
FNDA:1,_RNvNtNtCsJUKjIpJSKG_14my_http_server4test5errors_26test_error_chain_io_to_app
FNDA:1,_RNvNtNtCsJUKjIpJSKG_14my_http_server4test5errors_27test_template_error_display
FNDA:1,_RNvNtNtCsJUKjIpJSKG_14my_http_server4test5errors_28test_config_error_conversion
FNDA:1,_RNvNtNtCsJUKjIpJSKG_14my_http_server4test5errors_34test_glob_pattern_error_conversion
FNDA:1,_RNvNtNtCsJUKjIpJSKG_14my_http_server4test5errors_34test_strip_prefix_error_conversion
FNDA:1,_RNvNvNtNtCsJUKjIpJSKG_14my_http_server4test5errors_23test_result_propagation8inner_fn
FNDA:1,_RNvNvNtNtCsJUKjIpJSKG_14my_http_server4test5errors_23test_result_propagation8outer_fn
FNDA:1,_RNvNvNtNtCsJUKjIpJSKG_14my_http_server4test5errors_26test_error_chain_io_to_app8may_fail
FNDA:1,_RNvNtNtCsgBNAdYuGUwB_14my_http_server4test5errors_16test_other_error
FNDA:1,_RNvNtNtCsgBNAdYuGUwB_14my_http_server4test5errors_19test_app_result_err
FNDA:1,_RNvNtNtCsgBNAdYuGUwB_14my_http_server4test5errors_21test_io_error_display
FNDA:1,_RNvNtNtCsgBNAdYuGUwB_14my_http_server4test5errors_22test_error_from_string
FNDA:1,_RNvNtNtCsgBNAdYuGUwB_14my_http_server4test5errors_23test_error_debug_format
FNDA:1,_RNvNtNtCsgBNAdYuGUwB_14my_http_server4test5errors_23test_result_propagation
FNDA:1,_RNvNtNtCsgBNAdYuGUwB_14my_http_server4test5errors_24test_io_error_conversion
FNDA:1,_RNvNtNtCsgBNAdYuGUwB_14my_http_server4test5errors_25test_config_error_message
FNDA:1,_RNvNtNtCsgBNAdYuGUwB_14my_http_server4test5errors_25test_markdown_parse_error
FNDA:1,_RNvNtNtCsgBNAdYuGUwB_14my_http_server4test5errors_25test_nom_error_conversion
FNDA:1,_RNvNtNtCsgBNAdYuGUwB_14my_http_server4test5errors_26test_error_chain_io_to_app
FNDA:1,_RNvNtNtCsgBNAdYuGUwB_14my_http_server4test5errors_27test_template_error_display
FNDA:1,_RNvNtNtCsgBNAdYuGUwB_14my_http_server4test5errors_28test_config_error_conversion
FNDA:1,_RNvNtNtCsgBNAdYuGUwB_14my_http_server4test5errors_34test_glob_pattern_error_conversion
FNDA:1,_RNvNtNtCsgBNAdYuGUwB_14my_http_server4test5errors_34test_strip_prefix_error_conversion
FNDA:1,_RNvNvNtNtCsgBNAdYuGUwB_14my_http_server4test5errors_23test_result_propagation8inner_fn
FNDA:1,_RNvNvNtNtCsgBNAdYuGUwB_14my_http_server4test5errors_23test_result_propagation8outer_fn
FNDA:1,_RNvNvNtNtCsgBNAdYuGUwB_14my_http_server4test5errors_26test_error_chain_io_to_app8may_fail
FNDA:1,_RNvNtNtCs9ofXrUXFSdM_14my_http_server4test5errors_16test_other_error
FNDA:1,_RNvNtNtCs9ofXrUXFSdM_14my_http_server4test5errors_19test_app_result_err
FNDA:1,_RNvNtNtCs9ofXrUXFSdM_14my_http_server4test5errors_21test_io_error_display
FNDA:1,_RNvNtNtCs9ofXrUXFSdM_14my_http_server4test5errors_22test_error_from_string
FNDA:1,_RNvNtNtCs9ofXrUXFSdM_14my_http_server4test5errors_23test_error_debug_format
FNDA:1,_RNvNtNtCs9ofXrUXFSdM_14my_http_server4test5errors_23test_result_propagation
FNDA:1,_RNvNtNtCs9ofXrUXFSdM_14my_http_server4test5errors_24test_io_error_conversion
FNDA:1,_RNvNtNtCs9ofXrUXFSdM_14my_http_server4test5errors_25test_config_error_message
FNDA:1,_RNvNtNtCs9ofXrUXFSdM_14my_http_server4test5errors_25test_markdown_parse_error
FNDA:1,_RNvNtNtCs9ofXrUXFSdM_14my_http_server4test5errors_25test_nom_error_conversion
FNDA:1,_RNvNtNtCs9ofXrUXFSdM_14my_http_server4test5errors_26test_error_chain_io_to_app
FNDA:1,_RNvNtNtCs9ofXrUXFSdM_14my_http_server4test5errors_27test_template_error_display
FNDA:1,_RNvNtNtCs9ofXrUXFSdM_14my_http_server4test5errors_28test_config_error_conversion
FNDA:1,_RNvNtNtCs9ofXrUXFSdM_14my_http_server4test5errors_34test_glob_pattern_error_conversion
FNDA:1,_RNvNtNtCs9ofXrUXFSdM_14my_http_server4test5errors_34test_strip_prefix_error_conversion
FNDA:1,_RNvNvNtNtCs9ofXrUXFSdM_14my_http_server4test5errors_23test_result_propagation8inner_fn
FNDA:1,_RNvNvNtNtCs9ofXrUXFSdM_14my_http_server4test5errors_23test_result_propagation8outer_fn
FNDA:1,_RNvNvNtNtCs9ofXrUXFSdM_14my_http_server4test5errors_26test_error_chain_io_to_app8may_fail
FNDA:1,_RNvNtNtCslE1WvBQdpRb_14my_http_server4test5errors_16test_other_error
FNDA:1,_RNvNtNtCslE1WvBQdpRb_14my_http_server4test5errors_19test_app_result_err
FNDA:1,_RNvNtNtCslE1WvBQdpRb_14my_http_server4test5errors_21test_io_error_display
FNDA:1,_RNvNtNtCslE1WvBQdpRb_14my_http_server4test5errors_22test_error_from_string
FNDA:1,_RNvNtNtCslE1WvBQdpRb_14my_http_server4test5errors_23test_error_debug_format
FNDA:1,_RNvNtNtCslE1WvBQdpRb_14my_http_server4test5errors_23test_result_propagation
FNDA:1,_RNvNtNtCslE1WvBQdpRb_14my_http_server4test5errors_24test_io_error_conversion
FNDA:1,_RNvNtNtCslE1WvBQdpRb_14my_http_server4test5errors_25test_config_error_message
FNDA:1,_RNvNtNtCslE1WvBQdpRb_14my_http_server4test5errors_25test_markdown_parse_error
FNDA:1,_RNvNtNtCslE1WvBQdpRb_14my_http_server4test5errors_25test_nom_error_conversion
FNDA:1,_RNvNtNtCslE1WvBQdpRb_14my_http_server4test5errors_26test_error_chain_io_to_app
FNDA:1,_RNvNtNtCslE1WvBQdpRb_14my_http_server4test5errors_27test_template_error_display
FNDA:1,_RNvNtNtCslE1WvBQdpRb_14my_http_server4test5errors_28test_config_error_conversion
FNDA:1,_RNvNtNtCslE1WvBQdpRb_14my_http_server4test5errors_34test_glob_pattern_error_conversion
FNDA:1,_RNvNtNtCslE1WvBQdpRb_14my_http_server4test5errors_34test_strip_prefix_error_conversion
FNDA:1,_RNvNvNtNtCslE1WvBQdpRb_14my_http_server4test5errors_23test_result_propagation8inner_fn
FNDA:1,_RNvNvNtNtCslE1WvBQdpRb_14my_http_server4test5errors_23test_result_propagation8outer_fn
FNDA:1,_RNvNvNtNtCslE1WvBQdpRb_14my_http_server4test5errors_26test_error_chain_io_to_app8may_fail
FNF:18
FNH:18
DA:14,4
DA:15,4
DA:16,4
DA:18,4
DA:19,4
DA:20,0
DA:22,4
DA:25,4
DA:26,4
DA:27,4
DA:28,4
DA:30,4
DA:31,4
DA:32,4
DA:35,4
DA:36,4
DA:37,4
DA:39,4
DA:40,4
DA:41,4
DA:44,4
DA:47,4
DA:48,4
DA:50,4
DA:51,4
DA:52,0
DA:54,4
DA:57,4
DA:58,4
DA:59,4
DA:61,4
DA:62,4
DA:63,4
DA:92,4
DA:93,4
DA:94,4
DA:95,4
DA:98,4
DA:102,4
DA:103,4
DA:104,4
DA:105,4
DA:106,4
DA:107,0
DA:109,0
DA:110,4
DA:113,4
DA:116,4
DA:117,4
DA:119,4
DA:120,4
DA:122,4
DA:123,4
DA:124,4
DA:125,4
DA:126,0
DA:128,0
DA:129,4
DA:132,4
DA:147,4
DA:150,4
DA:151,4
DA:152,4
DA:153,0
DA:154,4
DA:156,4
DA:157,4
DA:159,4
DA:160,4
DA:161,0
DA:163,4
DA:166,4
DA:167,4
DA:168,4
DA:170,4
DA:171,4
DA:172,4
DA:175,4
DA:179,4
DA:180,4
DA:182,4
DA:183,4
DA:184,0
DA:186,4
DA:189,4
DA:190,4
DA:191,4
DA:192,4
DA:195,4
DA:198,4
DA:199,4
DA:200,4
DA:202,4
DA:203,4
DA:220,4
DA:221,4
DA:222,4
DA:223,4
DA:225,4
DA:226,4
DA:227,0
DA:228,4
DA:230,4
DA:231,4
DA:232,4
DA:233,4
BRF:0
BRH:0
LF:106
LH:96
end_of_record
SF:C:\Users\pl816\OneDrive\文件\git\my-http-server\src\test\integration.rs
FN:214,_RNvNtNtCsJUKjIpJSKG_14my_http_server4test11integrations_18test_md2html_links
FN:221,_RNvNtNtCsJUKjIpJSKG_14my_http_server4test11integrations_19test_md2html_images
FN:256,_RNvNtNtCsJUKjIpJSKG_14my_http_server4test11integrations_19test_md2html_tables
FN:242,_RNvNtNtCsJUKjIpJSKG_14my_http_server4test11integrations_24test_md2html_blockquotes
FN:228,_RNvNtNtCsJUKjIpJSKG_14my_http_server4test11integrations_25test_md2html_nested_lists
FN:463,_RNvNtNtCsJUKjIpJSKG_14my_http_server4test11integrations_26test_md2html_emoji_support
FN:267,_RNvNtNtCsJUKjIpJSKG_14my_http_server4test11integrations_26test_md2html_mixed_content
FN:430,_RNvNtNtCsJUKjIpJSKG_14my_http_server4test11integrations_27test_template_data_override
FN:455,_RNvNtNtCsJUKjIpJSKG_14my_http_server4test11integrations_28test_md2html_unicode_content
FN:473,_RNvNtNtCsJUKjIpJSKG_14my_http_server4test11integrations_28test_pipeline_error_handling
FN:360,_RNvNtNtCsJUKjIpJSKG_14my_http_server4test11integrations_28test_template_body_injection
FN:512,_RNvNtNtCsJUKjIpJSKG_14my_http_server4test11integrations_29test_concurrent_md2html_calls
FN:62,_RNvNtNtCsJUKjIpJSKG_14my_http_server4test11integrations_29test_md2html_basic_conversion
FN:249,_RNvNtNtCsJUKjIpJSKG_14my_http_server4test11integrations_29test_md2html_horizontal_rules
FN:483,_RNvNtNtCsJUKjIpJSKG_14my_http_server4test11integrations_29test_template_rendering_error
FN:122,_RNvNtNtCsJUKjIpJSKG_14my_http_server4test11integrations_30test_md2html_with_path_context
FN:386,_RNvNtNtCsJUKjIpJSKG_14my_http_server4test11integrations_30test_server_version_in_context
FN:534,_RNvNtNtCsJUKjIpJSKG_14my_http_server4test11integrations_33test_full_request_flow_with_index
FN:567,_RNvNtNtCsJUKjIpJSKG_14my_http_server4test11integrations_34test_full_request_flow_static_file
FN:170,_RNvNtNtCsJUKjIpJSKG_14my_http_server4test11integrations_35test_md2html_handles_empty_markdown
FN:95,_RNvNtNtCsJUKjIpJSKG_14my_http_server4test11integrations_35test_md2html_with_context_variables
FN:401,_RNvNtNtCsJUKjIpJSKG_14my_http_server4test11integrations_35test_multiple_template_data_entries
FN:583,_RNvNtNtCsJUKjIpJSKG_14my_http_server4test11integrations_36test_full_request_flow_directory_toc
FN:550,_RNvNtNtCsJUKjIpJSKG_14my_http_server4test11integrations_36test_full_request_flow_with_markdown
FN:148,_RNvNtNtCsJUKjIpJSKG_14my_http_server4test11integrations_37test_md2html_preserves_html_structure
FN:191,_RNvNtNtCsJUKjIpJSKG_14my_http_server4test11integrations_39test_md2html_handles_special_characters
FN:310,_RNvNtNtCsJUKjIpJSKG_14my_http_server4test11integrations_42test_template_context_env_vars_integration
FN:199,_RNvNtNtCsJUKjIpJSKG_14my_http_server4test11integrations_43test_md2html_code_block_syntax_highlighting
FN:295,_RNvNtNtCsJUKjIpJSKG_14my_http_server4test11integrations_48test_template_context_type_inference_integration
FN:23,_RINvNtNtCsJUKjIpJSKG_14my_http_server4test11integration13with_cwd_lockINtNtCsgS7EKHCc5jD_4core6result6ResultNtNtCs1S013FBku8r_5alloc6string6StringNtNtB6_5error8AppErrorENCNvB2_s_27test_template_data_override0EB6_
FN:23,_RINvNtNtCsJUKjIpJSKG_14my_http_server4test11integration13with_cwd_lockINtNtCsgS7EKHCc5jD_4core6result6ResultNtNtCs1S013FBku8r_5alloc6string6StringNtNtB6_5error8AppErrorENCNvB2_s_28test_template_body_injection0EB6_
FN:23,_RINvNtNtCsJUKjIpJSKG_14my_http_server4test11integration13with_cwd_lockINtNtCsgS7EKHCc5jD_4core6result6ResultNtNtCs1S013FBku8r_5alloc6string6StringNtNtB6_5error8AppErrorENCNvB2_s_29test_md2html_basic_conversion0EB6_
FN:23,_RINvNtNtCsJUKjIpJSKG_14my_http_server4test11integration13with_cwd_lockINtNtCsgS7EKHCc5jD_4core6result6ResultNtNtCs1S013FBku8r_5alloc6string6StringNtNtB6_5error8AppErrorENCNvB2_s_29test_template_rendering_error0EB6_
FN:23,_RINvNtNtCsJUKjIpJSKG_14my_http_server4test11integration13with_cwd_lockINtNtCsgS7EKHCc5jD_4core6result6ResultNtNtCs1S013FBku8r_5alloc6string6StringNtNtB6_5error8AppErrorENCNvB2_s_30test_md2html_with_path_context0EB6_
FN:23,_RINvNtNtCsJUKjIpJSKG_14my_http_server4test11integration13with_cwd_lockINtNtCsgS7EKHCc5jD_4core6result6ResultNtNtCs1S013FBku8r_5alloc6string6StringNtNtB6_5error8AppErrorENCNvB2_s_35test_md2html_handles_empty_markdown0EB6_
FN:23,_RINvNtNtCsJUKjIpJSKG_14my_http_server4test11integration13with_cwd_lockINtNtCsgS7EKHCc5jD_4core6result6ResultNtNtCs1S013FBku8r_5alloc6string6StringNtNtB6_5error8AppErrorENCNvB2_s_35test_md2html_with_context_variables0EB6_
FN:23,_RINvNtNtCsJUKjIpJSKG_14my_http_server4test11integration13with_cwd_lockINtNtCsgS7EKHCc5jD_4core6result6ResultNtNtCs1S013FBku8r_5alloc6string6StringNtNtB6_5error8AppErrorENCNvB2_s_35test_multiple_template_data_entries0EB6_
FN:23,_RINvNtNtCsJUKjIpJSKG_14my_http_server4test11integration13with_cwd_lockINtNtCsgS7EKHCc5jD_4core6result6ResultNtNtCs1S013FBku8r_5alloc6string6StringNtNtB6_5error8AppErrorENCNvB2_s_42test_template_context_env_vars_integration0EB6_
FN:23,_RINvNtNtCsJUKjIpJSKG_14my_http_server4test11integration13with_cwd_lockNtNtCs1S013FBku8r_5alloc6string6StringNCNvB2_s_36test_full_request_flow_directory_toc0EB6_
FN:25,_RNCINvNtNtCsJUKjIpJSKG_14my_http_server4test11integration13with_cwd_lockINtNtCsgS7EKHCc5jD_4core6result6ResultNtNtCs1S013FBku8r_5alloc6string6StringNtNtB8_5error8AppErrorENCNvB4_s_27test_template_data_override0E0B8_
FN:25,_RNCINvNtNtCsJUKjIpJSKG_14my_http_server4test11integration13with_cwd_lockINtNtCsgS7EKHCc5jD_4core6result6ResultNtNtCs1S013FBku8r_5alloc6string6StringNtNtB8_5error8AppErrorENCNvB4_s_28test_template_body_injection0E0B8_
FN:25,_RNCINvNtNtCsJUKjIpJSKG_14my_http_server4test11integration13with_cwd_lockINtNtCsgS7EKHCc5jD_4core6result6ResultNtNtCs1S013FBku8r_5alloc6string6StringNtNtB8_5error8AppErrorENCNvB4_s_29test_md2html_basic_conversion0E0B8_
FN:25,_RNCINvNtNtCsJUKjIpJSKG_14my_http_server4test11integration13with_cwd_lockINtNtCsgS7EKHCc5jD_4core6result6ResultNtNtCs1S013FBku8r_5alloc6string6StringNtNtB8_5error8AppErrorENCNvB4_s_29test_template_rendering_error0E0B8_
FN:25,_RNCINvNtNtCsJUKjIpJSKG_14my_http_server4test11integration13with_cwd_lockINtNtCsgS7EKHCc5jD_4core6result6ResultNtNtCs1S013FBku8r_5alloc6string6StringNtNtB8_5error8AppErrorENCNvB4_s_30test_md2html_with_path_context0E0B8_
FN:25,_RNCINvNtNtCsJUKjIpJSKG_14my_http_server4test11integration13with_cwd_lockINtNtCsgS7EKHCc5jD_4core6result6ResultNtNtCs1S013FBku8r_5alloc6string6StringNtNtB8_5error8AppErrorENCNvB4_s_35test_md2html_handles_empty_markdown0E0B8_
FN:25,_RNCINvNtNtCsJUKjIpJSKG_14my_http_server4test11integration13with_cwd_lockINtNtCsgS7EKHCc5jD_4core6result6ResultNtNtCs1S013FBku8r_5alloc6string6StringNtNtB8_5error8AppErrorENCNvB4_s_35test_md2html_with_context_variables0E0B8_
FN:25,_RNCINvNtNtCsJUKjIpJSKG_14my_http_server4test11integration13with_cwd_lockINtNtCsgS7EKHCc5jD_4core6result6ResultNtNtCs1S013FBku8r_5alloc6string6StringNtNtB8_5error8AppErrorENCNvB4_s_35test_multiple_template_data_entries0E0B8_
FN:25,_RNCINvNtNtCsJUKjIpJSKG_14my_http_server4test11integration13with_cwd_lockINtNtCsgS7EKHCc5jD_4core6result6ResultNtNtCs1S013FBku8r_5alloc6string6StringNtNtB8_5error8AppErrorENCNvB4_s_42test_template_context_env_vars_integration0E0B8_
FN:25,_RNCINvNtNtCsJUKjIpJSKG_14my_http_server4test11integration13with_cwd_lockNtNtCs1S013FBku8r_5alloc6string6StringNCNvB4_s_36test_full_request_flow_directory_toc0E0B8_
FN:518,_RNCNCNvNtNtCsJUKjIpJSKG_14my_http_server4test11integrations_29test_concurrent_md2html_calls00B9_
FN:441,_RNCNvNtNtCsJUKjIpJSKG_14my_http_server4test11integrations_27test_template_data_override0B7_
FN:371,_RNCNvNtNtCsJUKjIpJSKG_14my_http_server4test11integrations_28test_template_body_injection0B7_
FN:517,_RNCNvNtNtCsJUKjIpJSKG_14my_http_server4test11integrations_29test_concurrent_md2html_calls0B7_
FN:80,_RNCNvNtNtCsJUKjIpJSKG_14my_http_server4test11integrations_29test_md2html_basic_conversion0B7_
FN:493,_RNCNvNtNtCsJUKjIpJSKG_14my_http_server4test11integrations_29test_template_rendering_error0B7_
FN:133,_RNCNvNtNtCsJUKjIpJSKG_14my_http_server4test11integrations_30test_md2html_with_path_context0B7_
FN:177,_RNCNvNtNtCsJUKjIpJSKG_14my_http_server4test11integrations_35test_md2html_handles_empty_markdown0B7_
FN:107,_RNCNvNtNtCsJUKjIpJSKG_14my_http_server4test11integrations_35test_md2html_with_context_variables0B7_
FN:411,_RNCNvNtNtCsJUKjIpJSKG_14my_http_server4test11integrations_35test_multiple_template_data_entries0B7_
FN:605,_RNCNvNtNtCsJUKjIpJSKG_14my_http_server4test11integrations_36test_full_request_flow_directory_toc0B7_
FN:327,_RNCNvNtNtCsJUKjIpJSKG_14my_http_server4test11integrations_42test_template_context_env_vars_integration0B7_
FN:214,_RNvNtNtCsgBNAdYuGUwB_14my_http_server4test11integrations_18test_md2html_links
FN:221,_RNvNtNtCsgBNAdYuGUwB_14my_http_server4test11integrations_19test_md2html_images
FN:256,_RNvNtNtCsgBNAdYuGUwB_14my_http_server4test11integrations_19test_md2html_tables
FN:242,_RNvNtNtCsgBNAdYuGUwB_14my_http_server4test11integrations_24test_md2html_blockquotes
FN:228,_RNvNtNtCsgBNAdYuGUwB_14my_http_server4test11integrations_25test_md2html_nested_lists
FN:463,_RNvNtNtCsgBNAdYuGUwB_14my_http_server4test11integrations_26test_md2html_emoji_support
FN:267,_RNvNtNtCsgBNAdYuGUwB_14my_http_server4test11integrations_26test_md2html_mixed_content
FN:430,_RNvNtNtCsgBNAdYuGUwB_14my_http_server4test11integrations_27test_template_data_override
FN:455,_RNvNtNtCsgBNAdYuGUwB_14my_http_server4test11integrations_28test_md2html_unicode_content
FN:473,_RNvNtNtCsgBNAdYuGUwB_14my_http_server4test11integrations_28test_pipeline_error_handling
FN:360,_RNvNtNtCsgBNAdYuGUwB_14my_http_server4test11integrations_28test_template_body_injection
FN:512,_RNvNtNtCsgBNAdYuGUwB_14my_http_server4test11integrations_29test_concurrent_md2html_calls
FN:62,_RNvNtNtCsgBNAdYuGUwB_14my_http_server4test11integrations_29test_md2html_basic_conversion
FN:249,_RNvNtNtCsgBNAdYuGUwB_14my_http_server4test11integrations_29test_md2html_horizontal_rules
FN:483,_RNvNtNtCsgBNAdYuGUwB_14my_http_server4test11integrations_29test_template_rendering_error
FN:122,_RNvNtNtCsgBNAdYuGUwB_14my_http_server4test11integrations_30test_md2html_with_path_context
FN:386,_RNvNtNtCsgBNAdYuGUwB_14my_http_server4test11integrations_30test_server_version_in_context
FN:534,_RNvNtNtCsgBNAdYuGUwB_14my_http_server4test11integrations_33test_full_request_flow_with_index
FN:567,_RNvNtNtCsgBNAdYuGUwB_14my_http_server4test11integrations_34test_full_request_flow_static_file
FN:170,_RNvNtNtCsgBNAdYuGUwB_14my_http_server4test11integrations_35test_md2html_handles_empty_markdown
FN:95,_RNvNtNtCsgBNAdYuGUwB_14my_http_server4test11integrations_35test_md2html_with_context_variables
FN:401,_RNvNtNtCsgBNAdYuGUwB_14my_http_server4test11integrations_35test_multiple_template_data_entries
FN:583,_RNvNtNtCsgBNAdYuGUwB_14my_http_server4test11integrations_36test_full_request_flow_directory_toc
FN:550,_RNvNtNtCsgBNAdYuGUwB_14my_http_server4test11integrations_36test_full_request_flow_with_markdown
FN:148,_RNvNtNtCsgBNAdYuGUwB_14my_http_server4test11integrations_37test_md2html_preserves_html_structure
FN:191,_RNvNtNtCsgBNAdYuGUwB_14my_http_server4test11integrations_39test_md2html_handles_special_characters
FN:310,_RNvNtNtCsgBNAdYuGUwB_14my_http_server4test11integrations_42test_template_context_env_vars_integration
FN:199,_RNvNtNtCsgBNAdYuGUwB_14my_http_server4test11integrations_43test_md2html_code_block_syntax_highlighting
FN:295,_RNvNtNtCsgBNAdYuGUwB_14my_http_server4test11integrations_48test_template_context_type_inference_integration
FN:23,_RINvNtNtCsgBNAdYuGUwB_14my_http_server4test11integration13with_cwd_lockINtNtCsgS7EKHCc5jD_4core6result6ResultNtNtCs1S013FBku8r_5alloc6string6StringNtNtB6_5error8AppErrorENCNvB2_s_27test_template_data_override0EB6_
FN:23,_RINvNtNtCsgBNAdYuGUwB_14my_http_server4test11integration13with_cwd_lockINtNtCsgS7EKHCc5jD_4core6result6ResultNtNtCs1S013FBku8r_5alloc6string6StringNtNtB6_5error8AppErrorENCNvB2_s_28test_template_body_injection0EB6_
FN:23,_RINvNtNtCsgBNAdYuGUwB_14my_http_server4test11integration13with_cwd_lockINtNtCsgS7EKHCc5jD_4core6result6ResultNtNtCs1S013FBku8r_5alloc6string6StringNtNtB6_5error8AppErrorENCNvB2_s_29test_md2html_basic_conversion0EB6_
FN:23,_RINvNtNtCsgBNAdYuGUwB_14my_http_server4test11integration13with_cwd_lockINtNtCsgS7EKHCc5jD_4core6result6ResultNtNtCs1S013FBku8r_5alloc6string6StringNtNtB6_5error8AppErrorENCNvB2_s_29test_template_rendering_error0EB6_
FN:23,_RINvNtNtCsgBNAdYuGUwB_14my_http_server4test11integration13with_cwd_lockINtNtCsgS7EKHCc5jD_4core6result6ResultNtNtCs1S013FBku8r_5alloc6string6StringNtNtB6_5error8AppErrorENCNvB2_s_30test_md2html_with_path_context0EB6_
FN:23,_RINvNtNtCsgBNAdYuGUwB_14my_http_server4test11integration13with_cwd_lockINtNtCsgS7EKHCc5jD_4core6result6ResultNtNtCs1S013FBku8r_5alloc6string6StringNtNtB6_5error8AppErrorENCNvB2_s_35test_md2html_handles_empty_markdown0EB6_
FN:23,_RINvNtNtCsgBNAdYuGUwB_14my_http_server4test11integration13with_cwd_lockINtNtCsgS7EKHCc5jD_4core6result6ResultNtNtCs1S013FBku8r_5alloc6string6StringNtNtB6_5error8AppErrorENCNvB2_s_35test_md2html_with_context_variables0EB6_
FN:23,_RINvNtNtCsgBNAdYuGUwB_14my_http_server4test11integration13with_cwd_lockINtNtCsgS7EKHCc5jD_4core6result6ResultNtNtCs1S013FBku8r_5alloc6string6StringNtNtB6_5error8AppErrorENCNvB2_s_35test_multiple_template_data_entries0EB6_
FN:23,_RINvNtNtCsgBNAdYuGUwB_14my_http_server4test11integration13with_cwd_lockINtNtCsgS7EKHCc5jD_4core6result6ResultNtNtCs1S013FBku8r_5alloc6string6StringNtNtB6_5error8AppErrorENCNvB2_s_42test_template_context_env_vars_integration0EB6_
FN:23,_RINvNtNtCsgBNAdYuGUwB_14my_http_server4test11integration13with_cwd_lockNtNtCs1S013FBku8r_5alloc6string6StringNCNvB2_s_36test_full_request_flow_directory_toc0EB6_
FN:25,_RNCINvNtNtCsgBNAdYuGUwB_14my_http_server4test11integration13with_cwd_lockINtNtCsgS7EKHCc5jD_4core6result6ResultNtNtCs1S013FBku8r_5alloc6string6StringNtNtB8_5error8AppErrorENCNvB4_s_27test_template_data_override0E0B8_
FN:25,_RNCINvNtNtCsgBNAdYuGUwB_14my_http_server4test11integration13with_cwd_lockINtNtCsgS7EKHCc5jD_4core6result6ResultNtNtCs1S013FBku8r_5alloc6string6StringNtNtB8_5error8AppErrorENCNvB4_s_28test_template_body_injection0E0B8_
FN:25,_RNCINvNtNtCsgBNAdYuGUwB_14my_http_server4test11integration13with_cwd_lockINtNtCsgS7EKHCc5jD_4core6result6ResultNtNtCs1S013FBku8r_5alloc6string6StringNtNtB8_5error8AppErrorENCNvB4_s_29test_md2html_basic_conversion0E0B8_
FN:25,_RNCINvNtNtCsgBNAdYuGUwB_14my_http_server4test11integration13with_cwd_lockINtNtCsgS7EKHCc5jD_4core6result6ResultNtNtCs1S013FBku8r_5alloc6string6StringNtNtB8_5error8AppErrorENCNvB4_s_29test_template_rendering_error0E0B8_
FN:25,_RNCINvNtNtCsgBNAdYuGUwB_14my_http_server4test11integration13with_cwd_lockINtNtCsgS7EKHCc5jD_4core6result6ResultNtNtCs1S013FBku8r_5alloc6string6StringNtNtB8_5error8AppErrorENCNvB4_s_30test_md2html_with_path_context0E0B8_
FN:25,_RNCINvNtNtCsgBNAdYuGUwB_14my_http_server4test11integration13with_cwd_lockINtNtCsgS7EKHCc5jD_4core6result6ResultNtNtCs1S013FBku8r_5alloc6string6StringNtNtB8_5error8AppErrorENCNvB4_s_35test_md2html_handles_empty_markdown0E0B8_
FN:25,_RNCINvNtNtCsgBNAdYuGUwB_14my_http_server4test11integration13with_cwd_lockINtNtCsgS7EKHCc5jD_4core6result6ResultNtNtCs1S013FBku8r_5alloc6string6StringNtNtB8_5error8AppErrorENCNvB4_s_35test_md2html_with_context_variables0E0B8_
FN:25,_RNCINvNtNtCsgBNAdYuGUwB_14my_http_server4test11integration13with_cwd_lockINtNtCsgS7EKHCc5jD_4core6result6ResultNtNtCs1S013FBku8r_5alloc6string6StringNtNtB8_5error8AppErrorENCNvB4_s_35test_multiple_template_data_entries0E0B8_
FN:25,_RNCINvNtNtCsgBNAdYuGUwB_14my_http_server4test11integration13with_cwd_lockINtNtCsgS7EKHCc5jD_4core6result6ResultNtNtCs1S013FBku8r_5alloc6string6StringNtNtB8_5error8AppErrorENCNvB4_s_42test_template_context_env_vars_integration0E0B8_
FN:25,_RNCINvNtNtCsgBNAdYuGUwB_14my_http_server4test11integration13with_cwd_lockNtNtCs1S013FBku8r_5alloc6string6StringNCNvB4_s_36test_full_request_flow_directory_toc0E0B8_
FN:518,_RNCNCNvNtNtCsgBNAdYuGUwB_14my_http_server4test11integrations_29test_concurrent_md2html_calls00B9_
FN:441,_RNCNvNtNtCsgBNAdYuGUwB_14my_http_server4test11integrations_27test_template_data_override0B7_
FN:371,_RNCNvNtNtCsgBNAdYuGUwB_14my_http_server4test11integrations_28test_template_body_injection0B7_
FN:517,_RNCNvNtNtCsgBNAdYuGUwB_14my_http_server4test11integrations_29test_concurrent_md2html_calls0B7_
FN:80,_RNCNvNtNtCsgBNAdYuGUwB_14my_http_server4test11integrations_29test_md2html_basic_conversion0B7_
FN:493,_RNCNvNtNtCsgBNAdYuGUwB_14my_http_server4test11integrations_29test_template_rendering_error0B7_
FN:133,_RNCNvNtNtCsgBNAdYuGUwB_14my_http_server4test11integrations_30test_md2html_with_path_context0B7_
FN:177,_RNCNvNtNtCsgBNAdYuGUwB_14my_http_server4test11integrations_35test_md2html_handles_empty_markdown0B7_
FN:107,_RNCNvNtNtCsgBNAdYuGUwB_14my_http_server4test11integrations_35test_md2html_with_context_variables0B7_
FN:411,_RNCNvNtNtCsgBNAdYuGUwB_14my_http_server4test11integrations_35test_multiple_template_data_entries0B7_
FN:605,_RNCNvNtNtCsgBNAdYuGUwB_14my_http_server4test11integrations_36test_full_request_flow_directory_toc0B7_
FN:327,_RNCNvNtNtCsgBNAdYuGUwB_14my_http_server4test11integrations_42test_template_context_env_vars_integration0B7_
FN:23,_RINvNtNtCs9ofXrUXFSdM_14my_http_server4test11integration13with_cwd_lockINtNtCsgS7EKHCc5jD_4core6result6ResultNtNtCs1S013FBku8r_5alloc6string6StringNtNtB6_5error8AppErrorENCNvB2_s_27test_template_data_override0EB6_
FN:23,_RINvNtNtCs9ofXrUXFSdM_14my_http_server4test11integration13with_cwd_lockINtNtCsgS7EKHCc5jD_4core6result6ResultNtNtCs1S013FBku8r_5alloc6string6StringNtNtB6_5error8AppErrorENCNvB2_s_28test_template_body_injection0EB6_
FN:23,_RINvNtNtCs9ofXrUXFSdM_14my_http_server4test11integration13with_cwd_lockINtNtCsgS7EKHCc5jD_4core6result6ResultNtNtCs1S013FBku8r_5alloc6string6StringNtNtB6_5error8AppErrorENCNvB2_s_29test_md2html_basic_conversion0EB6_
FN:23,_RINvNtNtCs9ofXrUXFSdM_14my_http_server4test11integration13with_cwd_lockINtNtCsgS7EKHCc5jD_4core6result6ResultNtNtCs1S013FBku8r_5alloc6string6StringNtNtB6_5error8AppErrorENCNvB2_s_29test_template_rendering_error0EB6_
FN:23,_RINvNtNtCs9ofXrUXFSdM_14my_http_server4test11integration13with_cwd_lockINtNtCsgS7EKHCc5jD_4core6result6ResultNtNtCs1S013FBku8r_5alloc6string6StringNtNtB6_5error8AppErrorENCNvB2_s_30test_md2html_with_path_context0EB6_
FN:23,_RINvNtNtCs9ofXrUXFSdM_14my_http_server4test11integration13with_cwd_lockINtNtCsgS7EKHCc5jD_4core6result6ResultNtNtCs1S013FBku8r_5alloc6string6StringNtNtB6_5error8AppErrorENCNvB2_s_35test_md2html_handles_empty_markdown0EB6_
FN:23,_RINvNtNtCs9ofXrUXFSdM_14my_http_server4test11integration13with_cwd_lockINtNtCsgS7EKHCc5jD_4core6result6ResultNtNtCs1S013FBku8r_5alloc6string6StringNtNtB6_5error8AppErrorENCNvB2_s_35test_md2html_with_context_variables0EB6_
FN:23,_RINvNtNtCs9ofXrUXFSdM_14my_http_server4test11integration13with_cwd_lockINtNtCsgS7EKHCc5jD_4core6result6ResultNtNtCs1S013FBku8r_5alloc6string6StringNtNtB6_5error8AppErrorENCNvB2_s_35test_multiple_template_data_entries0EB6_
FN:23,_RINvNtNtCs9ofXrUXFSdM_14my_http_server4test11integration13with_cwd_lockINtNtCsgS7EKHCc5jD_4core6result6ResultNtNtCs1S013FBku8r_5alloc6string6StringNtNtB6_5error8AppErrorENCNvB2_s_42test_template_context_env_vars_integration0EB6_
FN:23,_RINvNtNtCs9ofXrUXFSdM_14my_http_server4test11integration13with_cwd_lockNtNtCs1S013FBku8r_5alloc6string6StringNCNvB2_s_36test_full_request_flow_directory_toc0EB6_
FN:25,_RNCINvNtNtCs9ofXrUXFSdM_14my_http_server4test11integration13with_cwd_lockINtNtCsgS7EKHCc5jD_4core6result6ResultNtNtCs1S013FBku8r_5alloc6string6StringNtNtB8_5error8AppErrorENCNvB4_s_27test_template_data_override0E0B8_
FN:25,_RNCINvNtNtCs9ofXrUXFSdM_14my_http_server4test11integration13with_cwd_lockINtNtCsgS7EKHCc5jD_4core6result6ResultNtNtCs1S013FBku8r_5alloc6string6StringNtNtB8_5error8AppErrorENCNvB4_s_28test_template_body_injection0E0B8_
FN:25,_RNCINvNtNtCs9ofXrUXFSdM_14my_http_server4test11integration13with_cwd_lockINtNtCsgS7EKHCc5jD_4core6result6ResultNtNtCs1S013FBku8r_5alloc6string6StringNtNtB8_5error8AppErrorENCNvB4_s_29test_md2html_basic_conversion0E0B8_
FN:25,_RNCINvNtNtCs9ofXrUXFSdM_14my_http_server4test11integration13with_cwd_lockINtNtCsgS7EKHCc5jD_4core6result6ResultNtNtCs1S013FBku8r_5alloc6string6StringNtNtB8_5error8AppErrorENCNvB4_s_29test_template_rendering_error0E0B8_
FN:25,_RNCINvNtNtCs9ofXrUXFSdM_14my_http_server4test11integration13with_cwd_lockINtNtCsgS7EKHCc5jD_4core6result6ResultNtNtCs1S013FBku8r_5alloc6string6StringNtNtB8_5error8AppErrorENCNvB4_s_30test_md2html_with_path_context0E0B8_
FN:25,_RNCINvNtNtCs9ofXrUXFSdM_14my_http_server4test11integration13with_cwd_lockINtNtCsgS7EKHCc5jD_4core6result6ResultNtNtCs1S013FBku8r_5alloc6string6StringNtNtB8_5error8AppErrorENCNvB4_s_35test_md2html_handles_empty_markdown0E0B8_
FN:25,_RNCINvNtNtCs9ofXrUXFSdM_14my_http_server4test11integration13with_cwd_lockINtNtCsgS7EKHCc5jD_4core6result6ResultNtNtCs1S013FBku8r_5alloc6string6StringNtNtB8_5error8AppErrorENCNvB4_s_35test_md2html_with_context_variables0E0B8_
FN:25,_RNCINvNtNtCs9ofXrUXFSdM_14my_http_server4test11integration13with_cwd_lockINtNtCsgS7EKHCc5jD_4core6result6ResultNtNtCs1S013FBku8r_5alloc6string6StringNtNtB8_5error8AppErrorENCNvB4_s_35test_multiple_template_data_entries0E0B8_
FN:25,_RNCINvNtNtCs9ofXrUXFSdM_14my_http_server4test11integration13with_cwd_lockINtNtCsgS7EKHCc5jD_4core6result6ResultNtNtCs1S013FBku8r_5alloc6string6StringNtNtB8_5error8AppErrorENCNvB4_s_42test_template_context_env_vars_integration0E0B8_
FN:25,_RNCINvNtNtCs9ofXrUXFSdM_14my_http_server4test11integration13with_cwd_lockNtNtCs1S013FBku8r_5alloc6string6StringNCNvB4_s_36test_full_request_flow_directory_toc0E0B8_
FN:518,_RNCNCNvNtNtCs9ofXrUXFSdM_14my_http_server4test11integrations_29test_concurrent_md2html_calls00B9_
FN:441,_RNCNvNtNtCs9ofXrUXFSdM_14my_http_server4test11integrations_27test_template_data_override0B7_
FN:371,_RNCNvNtNtCs9ofXrUXFSdM_14my_http_server4test11integrations_28test_template_body_injection0B7_
FN:517,_RNCNvNtNtCs9ofXrUXFSdM_14my_http_server4test11integrations_29test_concurrent_md2html_calls0B7_
FN:80,_RNCNvNtNtCs9ofXrUXFSdM_14my_http_server4test11integrations_29test_md2html_basic_conversion0B7_
FN:493,_RNCNvNtNtCs9ofXrUXFSdM_14my_http_server4test11integrations_29test_template_rendering_error0B7_
FN:133,_RNCNvNtNtCs9ofXrUXFSdM_14my_http_server4test11integrations_30test_md2html_with_path_context0B7_
FN:177,_RNCNvNtNtCs9ofXrUXFSdM_14my_http_server4test11integrations_35test_md2html_handles_empty_markdown0B7_
FN:107,_RNCNvNtNtCs9ofXrUXFSdM_14my_http_server4test11integrations_35test_md2html_with_context_variables0B7_
FN:411,_RNCNvNtNtCs9ofXrUXFSdM_14my_http_server4test11integrations_35test_multiple_template_data_entries0B7_
FN:605,_RNCNvNtNtCs9ofXrUXFSdM_14my_http_server4test11integrations_36test_full_request_flow_directory_toc0B7_
FN:327,_RNCNvNtNtCs9ofXrUXFSdM_14my_http_server4test11integrations_42test_template_context_env_vars_integration0B7_
FN:214,_RNvNtNtCs9ofXrUXFSdM_14my_http_server4test11integrations_18test_md2html_links
FN:221,_RNvNtNtCs9ofXrUXFSdM_14my_http_server4test11integrations_19test_md2html_images
FN:256,_RNvNtNtCs9ofXrUXFSdM_14my_http_server4test11integrations_19test_md2html_tables
FN:242,_RNvNtNtCs9ofXrUXFSdM_14my_http_server4test11integrations_24test_md2html_blockquotes
FN:228,_RNvNtNtCs9ofXrUXFSdM_14my_http_server4test11integrations_25test_md2html_nested_lists
FN:463,_RNvNtNtCs9ofXrUXFSdM_14my_http_server4test11integrations_26test_md2html_emoji_support
FN:267,_RNvNtNtCs9ofXrUXFSdM_14my_http_server4test11integrations_26test_md2html_mixed_content
FN:430,_RNvNtNtCs9ofXrUXFSdM_14my_http_server4test11integrations_27test_template_data_override
FN:455,_RNvNtNtCs9ofXrUXFSdM_14my_http_server4test11integrations_28test_md2html_unicode_content
FN:473,_RNvNtNtCs9ofXrUXFSdM_14my_http_server4test11integrations_28test_pipeline_error_handling
FN:360,_RNvNtNtCs9ofXrUXFSdM_14my_http_server4test11integrations_28test_template_body_injection
FN:512,_RNvNtNtCs9ofXrUXFSdM_14my_http_server4test11integrations_29test_concurrent_md2html_calls
FN:62,_RNvNtNtCs9ofXrUXFSdM_14my_http_server4test11integrations_29test_md2html_basic_conversion
FN:249,_RNvNtNtCs9ofXrUXFSdM_14my_http_server4test11integrations_29test_md2html_horizontal_rules
FN:483,_RNvNtNtCs9ofXrUXFSdM_14my_http_server4test11integrations_29test_template_rendering_error
FN:122,_RNvNtNtCs9ofXrUXFSdM_14my_http_server4test11integrations_30test_md2html_with_path_context
FN:386,_RNvNtNtCs9ofXrUXFSdM_14my_http_server4test11integrations_30test_server_version_in_context
FN:534,_RNvNtNtCs9ofXrUXFSdM_14my_http_server4test11integrations_33test_full_request_flow_with_index
FN:567,_RNvNtNtCs9ofXrUXFSdM_14my_http_server4test11integrations_34test_full_request_flow_static_file
FN:170,_RNvNtNtCs9ofXrUXFSdM_14my_http_server4test11integrations_35test_md2html_handles_empty_markdown
FN:95,_RNvNtNtCs9ofXrUXFSdM_14my_http_server4test11integrations_35test_md2html_with_context_variables
FN:401,_RNvNtNtCs9ofXrUXFSdM_14my_http_server4test11integrations_35test_multiple_template_data_entries
FN:583,_RNvNtNtCs9ofXrUXFSdM_14my_http_server4test11integrations_36test_full_request_flow_directory_toc
FN:550,_RNvNtNtCs9ofXrUXFSdM_14my_http_server4test11integrations_36test_full_request_flow_with_markdown
FN:148,_RNvNtNtCs9ofXrUXFSdM_14my_http_server4test11integrations_37test_md2html_preserves_html_structure
FN:191,_RNvNtNtCs9ofXrUXFSdM_14my_http_server4test11integrations_39test_md2html_handles_special_characters
FN:310,_RNvNtNtCs9ofXrUXFSdM_14my_http_server4test11integrations_42test_template_context_env_vars_integration
FN:199,_RNvNtNtCs9ofXrUXFSdM_14my_http_server4test11integrations_43test_md2html_code_block_syntax_highlighting
FN:295,_RNvNtNtCs9ofXrUXFSdM_14my_http_server4test11integrations_48test_template_context_type_inference_integration
FN:23,_RINvNtNtCslE1WvBQdpRb_14my_http_server4test11integration13with_cwd_lockINtNtCsgS7EKHCc5jD_4core6result6ResultNtNtCs1S013FBku8r_5alloc6string6StringNtNtB6_5error8AppErrorENCNvB2_s_27test_template_data_override0EB6_
FN:23,_RINvNtNtCslE1WvBQdpRb_14my_http_server4test11integration13with_cwd_lockINtNtCsgS7EKHCc5jD_4core6result6ResultNtNtCs1S013FBku8r_5alloc6string6StringNtNtB6_5error8AppErrorENCNvB2_s_28test_template_body_injection0EB6_
FN:23,_RINvNtNtCslE1WvBQdpRb_14my_http_server4test11integration13with_cwd_lockINtNtCsgS7EKHCc5jD_4core6result6ResultNtNtCs1S013FBku8r_5alloc6string6StringNtNtB6_5error8AppErrorENCNvB2_s_29test_md2html_basic_conversion0EB6_
FN:23,_RINvNtNtCslE1WvBQdpRb_14my_http_server4test11integration13with_cwd_lockINtNtCsgS7EKHCc5jD_4core6result6ResultNtNtCs1S013FBku8r_5alloc6string6StringNtNtB6_5error8AppErrorENCNvB2_s_29test_template_rendering_error0EB6_
FN:23,_RINvNtNtCslE1WvBQdpRb_14my_http_server4test11integration13with_cwd_lockINtNtCsgS7EKHCc5jD_4core6result6ResultNtNtCs1S013FBku8r_5alloc6string6StringNtNtB6_5error8AppErrorENCNvB2_s_30test_md2html_with_path_context0EB6_
FN:23,_RINvNtNtCslE1WvBQdpRb_14my_http_server4test11integration13with_cwd_lockINtNtCsgS7EKHCc5jD_4core6result6ResultNtNtCs1S013FBku8r_5alloc6string6StringNtNtB6_5error8AppErrorENCNvB2_s_35test_md2html_handles_empty_markdown0EB6_
FN:23,_RINvNtNtCslE1WvBQdpRb_14my_http_server4test11integration13with_cwd_lockINtNtCsgS7EKHCc5jD_4core6result6ResultNtNtCs1S013FBku8r_5alloc6string6StringNtNtB6_5error8AppErrorENCNvB2_s_35test_md2html_with_context_variables0EB6_
FN:23,_RINvNtNtCslE1WvBQdpRb_14my_http_server4test11integration13with_cwd_lockINtNtCsgS7EKHCc5jD_4core6result6ResultNtNtCs1S013FBku8r_5alloc6string6StringNtNtB6_5error8AppErrorENCNvB2_s_35test_multiple_template_data_entries0EB6_
FN:23,_RINvNtNtCslE1WvBQdpRb_14my_http_server4test11integration13with_cwd_lockINtNtCsgS7EKHCc5jD_4core6result6ResultNtNtCs1S013FBku8r_5alloc6string6StringNtNtB6_5error8AppErrorENCNvB2_s_42test_template_context_env_vars_integration0EB6_
FN:23,_RINvNtNtCslE1WvBQdpRb_14my_http_server4test11integration13with_cwd_lockNtNtCs1S013FBku8r_5alloc6string6StringNCNvB2_s_36test_full_request_flow_directory_toc0EB6_
FN:25,_RNCINvNtNtCslE1WvBQdpRb_14my_http_server4test11integration13with_cwd_lockINtNtCsgS7EKHCc5jD_4core6result6ResultNtNtCs1S013FBku8r_5alloc6string6StringNtNtB8_5error8AppErrorENCNvB4_s_27test_template_data_override0E0B8_
FN:25,_RNCINvNtNtCslE1WvBQdpRb_14my_http_server4test11integration13with_cwd_lockINtNtCsgS7EKHCc5jD_4core6result6ResultNtNtCs1S013FBku8r_5alloc6string6StringNtNtB8_5error8AppErrorENCNvB4_s_28test_template_body_injection0E0B8_
FN:25,_RNCINvNtNtCslE1WvBQdpRb_14my_http_server4test11integration13with_cwd_lockINtNtCsgS7EKHCc5jD_4core6result6ResultNtNtCs1S013FBku8r_5alloc6string6StringNtNtB8_5error8AppErrorENCNvB4_s_29test_md2html_basic_conversion0E0B8_
FN:25,_RNCINvNtNtCslE1WvBQdpRb_14my_http_server4test11integration13with_cwd_lockINtNtCsgS7EKHCc5jD_4core6result6ResultNtNtCs1S013FBku8r_5alloc6string6StringNtNtB8_5error8AppErrorENCNvB4_s_29test_template_rendering_error0E0B8_
FN:25,_RNCINvNtNtCslE1WvBQdpRb_14my_http_server4test11integration13with_cwd_lockINtNtCsgS7EKHCc5jD_4core6result6ResultNtNtCs1S013FBku8r_5alloc6string6StringNtNtB8_5error8AppErrorENCNvB4_s_30test_md2html_with_path_context0E0B8_
FN:25,_RNCINvNtNtCslE1WvBQdpRb_14my_http_server4test11integration13with_cwd_lockINtNtCsgS7EKHCc5jD_4core6result6ResultNtNtCs1S013FBku8r_5alloc6string6StringNtNtB8_5error8AppErrorENCNvB4_s_35test_md2html_handles_empty_markdown0E0B8_
FN:25,_RNCINvNtNtCslE1WvBQdpRb_14my_http_server4test11integration13with_cwd_lockINtNtCsgS7EKHCc5jD_4core6result6ResultNtNtCs1S013FBku8r_5alloc6string6StringNtNtB8_5error8AppErrorENCNvB4_s_35test_md2html_with_context_variables0E0B8_
FN:25,_RNCINvNtNtCslE1WvBQdpRb_14my_http_server4test11integration13with_cwd_lockINtNtCsgS7EKHCc5jD_4core6result6ResultNtNtCs1S013FBku8r_5alloc6string6StringNtNtB8_5error8AppErrorENCNvB4_s_35test_multiple_template_data_entries0E0B8_
FN:25,_RNCINvNtNtCslE1WvBQdpRb_14my_http_server4test11integration13with_cwd_lockINtNtCsgS7EKHCc5jD_4core6result6ResultNtNtCs1S013FBku8r_5alloc6string6StringNtNtB8_5error8AppErrorENCNvB4_s_42test_template_context_env_vars_integration0E0B8_
FN:25,_RNCINvNtNtCslE1WvBQdpRb_14my_http_server4test11integration13with_cwd_lockNtNtCs1S013FBku8r_5alloc6string6StringNCNvB4_s_36test_full_request_flow_directory_toc0E0B8_
FN:518,_RNCNCNvNtNtCslE1WvBQdpRb_14my_http_server4test11integrations_29test_concurrent_md2html_calls00B9_
FN:441,_RNCNvNtNtCslE1WvBQdpRb_14my_http_server4test11integrations_27test_template_data_override0B7_
FN:371,_RNCNvNtNtCslE1WvBQdpRb_14my_http_server4test11integrations_28test_template_body_injection0B7_
FN:517,_RNCNvNtNtCslE1WvBQdpRb_14my_http_server4test11integrations_29test_concurrent_md2html_calls0B7_
FN:80,_RNCNvNtNtCslE1WvBQdpRb_14my_http_server4test11integrations_29test_md2html_basic_conversion0B7_
FN:493,_RNCNvNtNtCslE1WvBQdpRb_14my_http_server4test11integrations_29test_template_rendering_error0B7_
FN:133,_RNCNvNtNtCslE1WvBQdpRb_14my_http_server4test11integrations_30test_md2html_with_path_context0B7_
FN:177,_RNCNvNtNtCslE1WvBQdpRb_14my_http_server4test11integrations_35test_md2html_handles_empty_markdown0B7_
FN:107,_RNCNvNtNtCslE1WvBQdpRb_14my_http_server4test11integrations_35test_md2html_with_context_variables0B7_
FN:411,_RNCNvNtNtCslE1WvBQdpRb_14my_http_server4test11integrations_35test_multiple_template_data_entries0B7_
FN:605,_RNCNvNtNtCslE1WvBQdpRb_14my_http_server4test11integrations_36test_full_request_flow_directory_toc0B7_
FN:327,_RNCNvNtNtCslE1WvBQdpRb_14my_http_server4test11integrations_42test_template_context_env_vars_integration0B7_
FN:214,_RNvNtNtCslE1WvBQdpRb_14my_http_server4test11integrations_18test_md2html_links
FN:221,_RNvNtNtCslE1WvBQdpRb_14my_http_server4test11integrations_19test_md2html_images
FN:256,_RNvNtNtCslE1WvBQdpRb_14my_http_server4test11integrations_19test_md2html_tables
FN:242,_RNvNtNtCslE1WvBQdpRb_14my_http_server4test11integrations_24test_md2html_blockquotes
FN:228,_RNvNtNtCslE1WvBQdpRb_14my_http_server4test11integrations_25test_md2html_nested_lists
FN:463,_RNvNtNtCslE1WvBQdpRb_14my_http_server4test11integrations_26test_md2html_emoji_support
FN:267,_RNvNtNtCslE1WvBQdpRb_14my_http_server4test11integrations_26test_md2html_mixed_content
FN:430,_RNvNtNtCslE1WvBQdpRb_14my_http_server4test11integrations_27test_template_data_override
FN:455,_RNvNtNtCslE1WvBQdpRb_14my_http_server4test11integrations_28test_md2html_unicode_content
FN:473,_RNvNtNtCslE1WvBQdpRb_14my_http_server4test11integrations_28test_pipeline_error_handling
FN:360,_RNvNtNtCslE1WvBQdpRb_14my_http_server4test11integrations_28test_template_body_injection
FN:512,_RNvNtNtCslE1WvBQdpRb_14my_http_server4test11integrations_29test_concurrent_md2html_calls
FN:62,_RNvNtNtCslE1WvBQdpRb_14my_http_server4test11integrations_29test_md2html_basic_conversion
FN:249,_RNvNtNtCslE1WvBQdpRb_14my_http_server4test11integrations_29test_md2html_horizontal_rules
FN:483,_RNvNtNtCslE1WvBQdpRb_14my_http_server4test11integrations_29test_template_rendering_error
FN:122,_RNvNtNtCslE1WvBQdpRb_14my_http_server4test11integrations_30test_md2html_with_path_context
FN:386,_RNvNtNtCslE1WvBQdpRb_14my_http_server4test11integrations_30test_server_version_in_context
FN:534,_RNvNtNtCslE1WvBQdpRb_14my_http_server4test11integrations_33test_full_request_flow_with_index
FN:567,_RNvNtNtCslE1WvBQdpRb_14my_http_server4test11integrations_34test_full_request_flow_static_file
FN:170,_RNvNtNtCslE1WvBQdpRb_14my_http_server4test11integrations_35test_md2html_handles_empty_markdown
FN:95,_RNvNtNtCslE1WvBQdpRb_14my_http_server4test11integrations_35test_md2html_with_context_variables
FN:401,_RNvNtNtCslE1WvBQdpRb_14my_http_server4test11integrations_35test_multiple_template_data_entries
FN:583,_RNvNtNtCslE1WvBQdpRb_14my_http_server4test11integrations_36test_full_request_flow_directory_toc
FN:550,_RNvNtNtCslE1WvBQdpRb_14my_http_server4test11integrations_36test_full_request_flow_with_markdown
FN:148,_RNvNtNtCslE1WvBQdpRb_14my_http_server4test11integrations_37test_md2html_preserves_html_structure
FN:191,_RNvNtNtCslE1WvBQdpRb_14my_http_server4test11integrations_39test_md2html_handles_special_characters
FN:310,_RNvNtNtCslE1WvBQdpRb_14my_http_server4test11integrations_42test_template_context_env_vars_integration
FN:199,_RNvNtNtCslE1WvBQdpRb_14my_http_server4test11integrations_43test_md2html_code_block_syntax_highlighting
FN:295,_RNvNtNtCslE1WvBQdpRb_14my_http_server4test11integrations_48test_template_context_type_inference_integration
FNDA:1,_RNvNtNtCsJUKjIpJSKG_14my_http_server4test11integrations_18test_md2html_links
FNDA:1,_RNvNtNtCsJUKjIpJSKG_14my_http_server4test11integrations_19test_md2html_images
FNDA:1,_RNvNtNtCsJUKjIpJSKG_14my_http_server4test11integrations_19test_md2html_tables
FNDA:1,_RNvNtNtCsJUKjIpJSKG_14my_http_server4test11integrations_24test_md2html_blockquotes
FNDA:1,_RNvNtNtCsJUKjIpJSKG_14my_http_server4test11integrations_25test_md2html_nested_lists
FNDA:1,_RNvNtNtCsJUKjIpJSKG_14my_http_server4test11integrations_26test_md2html_emoji_support
FNDA:1,_RNvNtNtCsJUKjIpJSKG_14my_http_server4test11integrations_26test_md2html_mixed_content
FNDA:1,_RNvNtNtCsJUKjIpJSKG_14my_http_server4test11integrations_27test_template_data_override
FNDA:1,_RNvNtNtCsJUKjIpJSKG_14my_http_server4test11integrations_28test_md2html_unicode_content
FNDA:1,_RNvNtNtCsJUKjIpJSKG_14my_http_server4test11integrations_28test_pipeline_error_handling
FNDA:1,_RNvNtNtCsJUKjIpJSKG_14my_http_server4test11integrations_28test_template_body_injection
FNDA:1,_RNvNtNtCsJUKjIpJSKG_14my_http_server4test11integrations_29test_concurrent_md2html_calls
FNDA:1,_RNvNtNtCsJUKjIpJSKG_14my_http_server4test11integrations_29test_md2html_basic_conversion
FNDA:1,_RNvNtNtCsJUKjIpJSKG_14my_http_server4test11integrations_29test_md2html_horizontal_rules
FNDA:1,_RNvNtNtCsJUKjIpJSKG_14my_http_server4test11integrations_29test_template_rendering_error
FNDA:1,_RNvNtNtCsJUKjIpJSKG_14my_http_server4test11integrations_30test_md2html_with_path_context
FNDA:1,_RNvNtNtCsJUKjIpJSKG_14my_http_server4test11integrations_30test_server_version_in_context
FNDA:1,_RNvNtNtCsJUKjIpJSKG_14my_http_server4test11integrations_33test_full_request_flow_with_index
FNDA:1,_RNvNtNtCsJUKjIpJSKG_14my_http_server4test11integrations_34test_full_request_flow_static_file
FNDA:1,_RNvNtNtCsJUKjIpJSKG_14my_http_server4test11integrations_35test_md2html_handles_empty_markdown
FNDA:1,_RNvNtNtCsJUKjIpJSKG_14my_http_server4test11integrations_35test_md2html_with_context_variables
FNDA:1,_RNvNtNtCsJUKjIpJSKG_14my_http_server4test11integrations_35test_multiple_template_data_entries
FNDA:1,_RNvNtNtCsJUKjIpJSKG_14my_http_server4test11integrations_36test_full_request_flow_directory_toc
FNDA:1,_RNvNtNtCsJUKjIpJSKG_14my_http_server4test11integrations_36test_full_request_flow_with_markdown
FNDA:1,_RNvNtNtCsJUKjIpJSKG_14my_http_server4test11integrations_37test_md2html_preserves_html_structure
FNDA:1,_RNvNtNtCsJUKjIpJSKG_14my_http_server4test11integrations_39test_md2html_handles_special_characters
FNDA:1,_RNvNtNtCsJUKjIpJSKG_14my_http_server4test11integrations_42test_template_context_env_vars_integration
FNDA:1,_RNvNtNtCsJUKjIpJSKG_14my_http_server4test11integrations_43test_md2html_code_block_syntax_highlighting
FNDA:1,_RNvNtNtCsJUKjIpJSKG_14my_http_server4test11integrations_48test_template_context_type_inference_integration
FNDA:1,_RINvNtNtCsJUKjIpJSKG_14my_http_server4test11integration13with_cwd_lockINtNtCsgS7EKHCc5jD_4core6result6ResultNtNtCs1S013FBku8r_5alloc6string6StringNtNtB6_5error8AppErrorENCNvB2_s_27test_template_data_override0EB6_
FNDA:1,_RINvNtNtCsJUKjIpJSKG_14my_http_server4test11integration13with_cwd_lockINtNtCsgS7EKHCc5jD_4core6result6ResultNtNtCs1S013FBku8r_5alloc6string6StringNtNtB6_5error8AppErrorENCNvB2_s_28test_template_body_injection0EB6_
FNDA:1,_RINvNtNtCsJUKjIpJSKG_14my_http_server4test11integration13with_cwd_lockINtNtCsgS7EKHCc5jD_4core6result6ResultNtNtCs1S013FBku8r_5alloc6string6StringNtNtB6_5error8AppErrorENCNvB2_s_29test_md2html_basic_conversion0EB6_
FNDA:1,_RINvNtNtCsJUKjIpJSKG_14my_http_server4test11integration13with_cwd_lockINtNtCsgS7EKHCc5jD_4core6result6ResultNtNtCs1S013FBku8r_5alloc6string6StringNtNtB6_5error8AppErrorENCNvB2_s_29test_template_rendering_error0EB6_
FNDA:1,_RINvNtNtCsJUKjIpJSKG_14my_http_server4test11integration13with_cwd_lockINtNtCsgS7EKHCc5jD_4core6result6ResultNtNtCs1S013FBku8r_5alloc6string6StringNtNtB6_5error8AppErrorENCNvB2_s_30test_md2html_with_path_context0EB6_
FNDA:1,_RINvNtNtCsJUKjIpJSKG_14my_http_server4test11integration13with_cwd_lockINtNtCsgS7EKHCc5jD_4core6result6ResultNtNtCs1S013FBku8r_5alloc6string6StringNtNtB6_5error8AppErrorENCNvB2_s_35test_md2html_handles_empty_markdown0EB6_
FNDA:1,_RINvNtNtCsJUKjIpJSKG_14my_http_server4test11integration13with_cwd_lockINtNtCsgS7EKHCc5jD_4core6result6ResultNtNtCs1S013FBku8r_5alloc6string6StringNtNtB6_5error8AppErrorENCNvB2_s_35test_md2html_with_context_variables0EB6_
FNDA:1,_RINvNtNtCsJUKjIpJSKG_14my_http_server4test11integration13with_cwd_lockINtNtCsgS7EKHCc5jD_4core6result6ResultNtNtCs1S013FBku8r_5alloc6string6StringNtNtB6_5error8AppErrorENCNvB2_s_35test_multiple_template_data_entries0EB6_
FNDA:1,_RINvNtNtCsJUKjIpJSKG_14my_http_server4test11integration13with_cwd_lockINtNtCsgS7EKHCc5jD_4core6result6ResultNtNtCs1S013FBku8r_5alloc6string6StringNtNtB6_5error8AppErrorENCNvB2_s_42test_template_context_env_vars_integration0EB6_
FNDA:1,_RINvNtNtCsJUKjIpJSKG_14my_http_server4test11integration13with_cwd_lockNtNtCs1S013FBku8r_5alloc6string6StringNCNvB2_s_36test_full_request_flow_directory_toc0EB6_
FNDA:1,_RNCINvNtNtCsJUKjIpJSKG_14my_http_server4test11integration13with_cwd_lockINtNtCsgS7EKHCc5jD_4core6result6ResultNtNtCs1S013FBku8r_5alloc6string6StringNtNtB8_5error8AppErrorENCNvB4_s_27test_template_data_override0E0B8_
FNDA:1,_RNCINvNtNtCsJUKjIpJSKG_14my_http_server4test11integration13with_cwd_lockINtNtCsgS7EKHCc5jD_4core6result6ResultNtNtCs1S013FBku8r_5alloc6string6StringNtNtB8_5error8AppErrorENCNvB4_s_28test_template_body_injection0E0B8_
FNDA:1,_RNCINvNtNtCsJUKjIpJSKG_14my_http_server4test11integration13with_cwd_lockINtNtCsgS7EKHCc5jD_4core6result6ResultNtNtCs1S013FBku8r_5alloc6string6StringNtNtB8_5error8AppErrorENCNvB4_s_29test_md2html_basic_conversion0E0B8_
FNDA:1,_RNCINvNtNtCsJUKjIpJSKG_14my_http_server4test11integration13with_cwd_lockINtNtCsgS7EKHCc5jD_4core6result6ResultNtNtCs1S013FBku8r_5alloc6string6StringNtNtB8_5error8AppErrorENCNvB4_s_29test_template_rendering_error0E0B8_
FNDA:1,_RNCINvNtNtCsJUKjIpJSKG_14my_http_server4test11integration13with_cwd_lockINtNtCsgS7EKHCc5jD_4core6result6ResultNtNtCs1S013FBku8r_5alloc6string6StringNtNtB8_5error8AppErrorENCNvB4_s_30test_md2html_with_path_context0E0B8_
FNDA:1,_RNCINvNtNtCsJUKjIpJSKG_14my_http_server4test11integration13with_cwd_lockINtNtCsgS7EKHCc5jD_4core6result6ResultNtNtCs1S013FBku8r_5alloc6string6StringNtNtB8_5error8AppErrorENCNvB4_s_35test_md2html_handles_empty_markdown0E0B8_
FNDA:1,_RNCINvNtNtCsJUKjIpJSKG_14my_http_server4test11integration13with_cwd_lockINtNtCsgS7EKHCc5jD_4core6result6ResultNtNtCs1S013FBku8r_5alloc6string6StringNtNtB8_5error8AppErrorENCNvB4_s_35test_md2html_with_context_variables0E0B8_
FNDA:1,_RNCINvNtNtCsJUKjIpJSKG_14my_http_server4test11integration13with_cwd_lockINtNtCsgS7EKHCc5jD_4core6result6ResultNtNtCs1S013FBku8r_5alloc6string6StringNtNtB8_5error8AppErrorENCNvB4_s_35test_multiple_template_data_entries0E0B8_
FNDA:1,_RNCINvNtNtCsJUKjIpJSKG_14my_http_server4test11integration13with_cwd_lockINtNtCsgS7EKHCc5jD_4core6result6ResultNtNtCs1S013FBku8r_5alloc6string6StringNtNtB8_5error8AppErrorENCNvB4_s_42test_template_context_env_vars_integration0E0B8_
FNDA:1,_RNCINvNtNtCsJUKjIpJSKG_14my_http_server4test11integration13with_cwd_lockNtNtCs1S013FBku8r_5alloc6string6StringNCNvB4_s_36test_full_request_flow_directory_toc0E0B8_
FNDA:5,_RNCNCNvNtNtCsJUKjIpJSKG_14my_http_server4test11integrations_29test_concurrent_md2html_calls00B9_
FNDA:1,_RNCNvNtNtCsJUKjIpJSKG_14my_http_server4test11integrations_27test_template_data_override0B7_
FNDA:1,_RNCNvNtNtCsJUKjIpJSKG_14my_http_server4test11integrations_28test_template_body_injection0B7_
FNDA:5,_RNCNvNtNtCsJUKjIpJSKG_14my_http_server4test11integrations_29test_concurrent_md2html_calls0B7_
FNDA:1,_RNCNvNtNtCsJUKjIpJSKG_14my_http_server4test11integrations_29test_md2html_basic_conversion0B7_
FNDA:1,_RNCNvNtNtCsJUKjIpJSKG_14my_http_server4test11integrations_29test_template_rendering_error0B7_
FNDA:1,_RNCNvNtNtCsJUKjIpJSKG_14my_http_server4test11integrations_30test_md2html_with_path_context0B7_
FNDA:1,_RNCNvNtNtCsJUKjIpJSKG_14my_http_server4test11integrations_35test_md2html_handles_empty_markdown0B7_
FNDA:1,_RNCNvNtNtCsJUKjIpJSKG_14my_http_server4test11integrations_35test_md2html_with_context_variables0B7_
FNDA:1,_RNCNvNtNtCsJUKjIpJSKG_14my_http_server4test11integrations_35test_multiple_template_data_entries0B7_
FNDA:1,_RNCNvNtNtCsJUKjIpJSKG_14my_http_server4test11integrations_36test_full_request_flow_directory_toc0B7_
FNDA:1,_RNCNvNtNtCsJUKjIpJSKG_14my_http_server4test11integrations_42test_template_context_env_vars_integration0B7_
FNDA:1,_RNvNtNtCsgBNAdYuGUwB_14my_http_server4test11integrations_18test_md2html_links
FNDA:1,_RNvNtNtCsgBNAdYuGUwB_14my_http_server4test11integrations_19test_md2html_images
FNDA:1,_RNvNtNtCsgBNAdYuGUwB_14my_http_server4test11integrations_19test_md2html_tables
FNDA:1,_RNvNtNtCsgBNAdYuGUwB_14my_http_server4test11integrations_24test_md2html_blockquotes
FNDA:1,_RNvNtNtCsgBNAdYuGUwB_14my_http_server4test11integrations_25test_md2html_nested_lists
FNDA:1,_RNvNtNtCsgBNAdYuGUwB_14my_http_server4test11integrations_26test_md2html_emoji_support
FNDA:1,_RNvNtNtCsgBNAdYuGUwB_14my_http_server4test11integrations_26test_md2html_mixed_content
FNDA:1,_RNvNtNtCsgBNAdYuGUwB_14my_http_server4test11integrations_27test_template_data_override
FNDA:1,_RNvNtNtCsgBNAdYuGUwB_14my_http_server4test11integrations_28test_md2html_unicode_content
FNDA:1,_RNvNtNtCsgBNAdYuGUwB_14my_http_server4test11integrations_28test_pipeline_error_handling
FNDA:1,_RNvNtNtCsgBNAdYuGUwB_14my_http_server4test11integrations_28test_template_body_injection
FNDA:1,_RNvNtNtCsgBNAdYuGUwB_14my_http_server4test11integrations_29test_concurrent_md2html_calls
FNDA:1,_RNvNtNtCsgBNAdYuGUwB_14my_http_server4test11integrations_29test_md2html_basic_conversion
FNDA:1,_RNvNtNtCsgBNAdYuGUwB_14my_http_server4test11integrations_29test_md2html_horizontal_rules
FNDA:1,_RNvNtNtCsgBNAdYuGUwB_14my_http_server4test11integrations_29test_template_rendering_error
FNDA:1,_RNvNtNtCsgBNAdYuGUwB_14my_http_server4test11integrations_30test_md2html_with_path_context
FNDA:1,_RNvNtNtCsgBNAdYuGUwB_14my_http_server4test11integrations_30test_server_version_in_context
FNDA:1,_RNvNtNtCsgBNAdYuGUwB_14my_http_server4test11integrations_33test_full_request_flow_with_index
FNDA:1,_RNvNtNtCsgBNAdYuGUwB_14my_http_server4test11integrations_34test_full_request_flow_static_file
FNDA:1,_RNvNtNtCsgBNAdYuGUwB_14my_http_server4test11integrations_35test_md2html_handles_empty_markdown
FNDA:1,_RNvNtNtCsgBNAdYuGUwB_14my_http_server4test11integrations_35test_md2html_with_context_variables
FNDA:1,_RNvNtNtCsgBNAdYuGUwB_14my_http_server4test11integrations_35test_multiple_template_data_entries
FNDA:1,_RNvNtNtCsgBNAdYuGUwB_14my_http_server4test11integrations_36test_full_request_flow_directory_toc
FNDA:1,_RNvNtNtCsgBNAdYuGUwB_14my_http_server4test11integrations_36test_full_request_flow_with_markdown
FNDA:1,_RNvNtNtCsgBNAdYuGUwB_14my_http_server4test11integrations_37test_md2html_preserves_html_structure
FNDA:1,_RNvNtNtCsgBNAdYuGUwB_14my_http_server4test11integrations_39test_md2html_handles_special_characters
FNDA:1,_RNvNtNtCsgBNAdYuGUwB_14my_http_server4test11integrations_42test_template_context_env_vars_integration
FNDA:1,_RNvNtNtCsgBNAdYuGUwB_14my_http_server4test11integrations_43test_md2html_code_block_syntax_highlighting
FNDA:1,_RNvNtNtCsgBNAdYuGUwB_14my_http_server4test11integrations_48test_template_context_type_inference_integration
FNDA:1,_RINvNtNtCsgBNAdYuGUwB_14my_http_server4test11integration13with_cwd_lockINtNtCsgS7EKHCc5jD_4core6result6ResultNtNtCs1S013FBku8r_5alloc6string6StringNtNtB6_5error8AppErrorENCNvB2_s_27test_template_data_override0EB6_
FNDA:1,_RINvNtNtCsgBNAdYuGUwB_14my_http_server4test11integration13with_cwd_lockINtNtCsgS7EKHCc5jD_4core6result6ResultNtNtCs1S013FBku8r_5alloc6string6StringNtNtB6_5error8AppErrorENCNvB2_s_28test_template_body_injection0EB6_
FNDA:1,_RINvNtNtCsgBNAdYuGUwB_14my_http_server4test11integration13with_cwd_lockINtNtCsgS7EKHCc5jD_4core6result6ResultNtNtCs1S013FBku8r_5alloc6string6StringNtNtB6_5error8AppErrorENCNvB2_s_29test_md2html_basic_conversion0EB6_
FNDA:1,_RINvNtNtCsgBNAdYuGUwB_14my_http_server4test11integration13with_cwd_lockINtNtCsgS7EKHCc5jD_4core6result6ResultNtNtCs1S013FBku8r_5alloc6string6StringNtNtB6_5error8AppErrorENCNvB2_s_29test_template_rendering_error0EB6_
FNDA:1,_RINvNtNtCsgBNAdYuGUwB_14my_http_server4test11integration13with_cwd_lockINtNtCsgS7EKHCc5jD_4core6result6ResultNtNtCs1S013FBku8r_5alloc6string6StringNtNtB6_5error8AppErrorENCNvB2_s_30test_md2html_with_path_context0EB6_
FNDA:1,_RINvNtNtCsgBNAdYuGUwB_14my_http_server4test11integration13with_cwd_lockINtNtCsgS7EKHCc5jD_4core6result6ResultNtNtCs1S013FBku8r_5alloc6string6StringNtNtB6_5error8AppErrorENCNvB2_s_35test_md2html_handles_empty_markdown0EB6_
FNDA:1,_RINvNtNtCsgBNAdYuGUwB_14my_http_server4test11integration13with_cwd_lockINtNtCsgS7EKHCc5jD_4core6result6ResultNtNtCs1S013FBku8r_5alloc6string6StringNtNtB6_5error8AppErrorENCNvB2_s_35test_md2html_with_context_variables0EB6_
FNDA:1,_RINvNtNtCsgBNAdYuGUwB_14my_http_server4test11integration13with_cwd_lockINtNtCsgS7EKHCc5jD_4core6result6ResultNtNtCs1S013FBku8r_5alloc6string6StringNtNtB6_5error8AppErrorENCNvB2_s_35test_multiple_template_data_entries0EB6_
FNDA:1,_RINvNtNtCsgBNAdYuGUwB_14my_http_server4test11integration13with_cwd_lockINtNtCsgS7EKHCc5jD_4core6result6ResultNtNtCs1S013FBku8r_5alloc6string6StringNtNtB6_5error8AppErrorENCNvB2_s_42test_template_context_env_vars_integration0EB6_
FNDA:1,_RINvNtNtCsgBNAdYuGUwB_14my_http_server4test11integration13with_cwd_lockNtNtCs1S013FBku8r_5alloc6string6StringNCNvB2_s_36test_full_request_flow_directory_toc0EB6_
FNDA:1,_RNCINvNtNtCsgBNAdYuGUwB_14my_http_server4test11integration13with_cwd_lockINtNtCsgS7EKHCc5jD_4core6result6ResultNtNtCs1S013FBku8r_5alloc6string6StringNtNtB8_5error8AppErrorENCNvB4_s_27test_template_data_override0E0B8_
FNDA:1,_RNCINvNtNtCsgBNAdYuGUwB_14my_http_server4test11integration13with_cwd_lockINtNtCsgS7EKHCc5jD_4core6result6ResultNtNtCs1S013FBku8r_5alloc6string6StringNtNtB8_5error8AppErrorENCNvB4_s_28test_template_body_injection0E0B8_
FNDA:1,_RNCINvNtNtCsgBNAdYuGUwB_14my_http_server4test11integration13with_cwd_lockINtNtCsgS7EKHCc5jD_4core6result6ResultNtNtCs1S013FBku8r_5alloc6string6StringNtNtB8_5error8AppErrorENCNvB4_s_29test_md2html_basic_conversion0E0B8_
FNDA:1,_RNCINvNtNtCsgBNAdYuGUwB_14my_http_server4test11integration13with_cwd_lockINtNtCsgS7EKHCc5jD_4core6result6ResultNtNtCs1S013FBku8r_5alloc6string6StringNtNtB8_5error8AppErrorENCNvB4_s_29test_template_rendering_error0E0B8_
FNDA:1,_RNCINvNtNtCsgBNAdYuGUwB_14my_http_server4test11integration13with_cwd_lockINtNtCsgS7EKHCc5jD_4core6result6ResultNtNtCs1S013FBku8r_5alloc6string6StringNtNtB8_5error8AppErrorENCNvB4_s_30test_md2html_with_path_context0E0B8_
FNDA:1,_RNCINvNtNtCsgBNAdYuGUwB_14my_http_server4test11integration13with_cwd_lockINtNtCsgS7EKHCc5jD_4core6result6ResultNtNtCs1S013FBku8r_5alloc6string6StringNtNtB8_5error8AppErrorENCNvB4_s_35test_md2html_handles_empty_markdown0E0B8_
FNDA:1,_RNCINvNtNtCsgBNAdYuGUwB_14my_http_server4test11integration13with_cwd_lockINtNtCsgS7EKHCc5jD_4core6result6ResultNtNtCs1S013FBku8r_5alloc6string6StringNtNtB8_5error8AppErrorENCNvB4_s_35test_md2html_with_context_variables0E0B8_
FNDA:1,_RNCINvNtNtCsgBNAdYuGUwB_14my_http_server4test11integration13with_cwd_lockINtNtCsgS7EKHCc5jD_4core6result6ResultNtNtCs1S013FBku8r_5alloc6string6StringNtNtB8_5error8AppErrorENCNvB4_s_35test_multiple_template_data_entries0E0B8_
FNDA:1,_RNCINvNtNtCsgBNAdYuGUwB_14my_http_server4test11integration13with_cwd_lockINtNtCsgS7EKHCc5jD_4core6result6ResultNtNtCs1S013FBku8r_5alloc6string6StringNtNtB8_5error8AppErrorENCNvB4_s_42test_template_context_env_vars_integration0E0B8_
FNDA:1,_RNCINvNtNtCsgBNAdYuGUwB_14my_http_server4test11integration13with_cwd_lockNtNtCs1S013FBku8r_5alloc6string6StringNCNvB4_s_36test_full_request_flow_directory_toc0E0B8_
FNDA:5,_RNCNCNvNtNtCsgBNAdYuGUwB_14my_http_server4test11integrations_29test_concurrent_md2html_calls00B9_
FNDA:1,_RNCNvNtNtCsgBNAdYuGUwB_14my_http_server4test11integrations_27test_template_data_override0B7_
FNDA:1,_RNCNvNtNtCsgBNAdYuGUwB_14my_http_server4test11integrations_28test_template_body_injection0B7_
FNDA:5,_RNCNvNtNtCsgBNAdYuGUwB_14my_http_server4test11integrations_29test_concurrent_md2html_calls0B7_
FNDA:1,_RNCNvNtNtCsgBNAdYuGUwB_14my_http_server4test11integrations_29test_md2html_basic_conversion0B7_
FNDA:1,_RNCNvNtNtCsgBNAdYuGUwB_14my_http_server4test11integrations_29test_template_rendering_error0B7_
FNDA:1,_RNCNvNtNtCsgBNAdYuGUwB_14my_http_server4test11integrations_30test_md2html_with_path_context0B7_
FNDA:1,_RNCNvNtNtCsgBNAdYuGUwB_14my_http_server4test11integrations_35test_md2html_handles_empty_markdown0B7_
FNDA:1,_RNCNvNtNtCsgBNAdYuGUwB_14my_http_server4test11integrations_35test_md2html_with_context_variables0B7_
FNDA:1,_RNCNvNtNtCsgBNAdYuGUwB_14my_http_server4test11integrations_35test_multiple_template_data_entries0B7_
FNDA:1,_RNCNvNtNtCsgBNAdYuGUwB_14my_http_server4test11integrations_36test_full_request_flow_directory_toc0B7_
FNDA:1,_RNCNvNtNtCsgBNAdYuGUwB_14my_http_server4test11integrations_42test_template_context_env_vars_integration0B7_
FNDA:1,_RINvNtNtCs9ofXrUXFSdM_14my_http_server4test11integration13with_cwd_lockINtNtCsgS7EKHCc5jD_4core6result6ResultNtNtCs1S013FBku8r_5alloc6string6StringNtNtB6_5error8AppErrorENCNvB2_s_27test_template_data_override0EB6_
FNDA:1,_RINvNtNtCs9ofXrUXFSdM_14my_http_server4test11integration13with_cwd_lockINtNtCsgS7EKHCc5jD_4core6result6ResultNtNtCs1S013FBku8r_5alloc6string6StringNtNtB6_5error8AppErrorENCNvB2_s_28test_template_body_injection0EB6_
FNDA:1,_RINvNtNtCs9ofXrUXFSdM_14my_http_server4test11integration13with_cwd_lockINtNtCsgS7EKHCc5jD_4core6result6ResultNtNtCs1S013FBku8r_5alloc6string6StringNtNtB6_5error8AppErrorENCNvB2_s_29test_md2html_basic_conversion0EB6_
FNDA:1,_RINvNtNtCs9ofXrUXFSdM_14my_http_server4test11integration13with_cwd_lockINtNtCsgS7EKHCc5jD_4core6result6ResultNtNtCs1S013FBku8r_5alloc6string6StringNtNtB6_5error8AppErrorENCNvB2_s_29test_template_rendering_error0EB6_
FNDA:1,_RINvNtNtCs9ofXrUXFSdM_14my_http_server4test11integration13with_cwd_lockINtNtCsgS7EKHCc5jD_4core6result6ResultNtNtCs1S013FBku8r_5alloc6string6StringNtNtB6_5error8AppErrorENCNvB2_s_30test_md2html_with_path_context0EB6_
FNDA:1,_RINvNtNtCs9ofXrUXFSdM_14my_http_server4test11integration13with_cwd_lockINtNtCsgS7EKHCc5jD_4core6result6ResultNtNtCs1S013FBku8r_5alloc6string6StringNtNtB6_5error8AppErrorENCNvB2_s_35test_md2html_handles_empty_markdown0EB6_
FNDA:1,_RINvNtNtCs9ofXrUXFSdM_14my_http_server4test11integration13with_cwd_lockINtNtCsgS7EKHCc5jD_4core6result6ResultNtNtCs1S013FBku8r_5alloc6string6StringNtNtB6_5error8AppErrorENCNvB2_s_35test_md2html_with_context_variables0EB6_
FNDA:1,_RINvNtNtCs9ofXrUXFSdM_14my_http_server4test11integration13with_cwd_lockINtNtCsgS7EKHCc5jD_4core6result6ResultNtNtCs1S013FBku8r_5alloc6string6StringNtNtB6_5error8AppErrorENCNvB2_s_35test_multiple_template_data_entries0EB6_
FNDA:1,_RINvNtNtCs9ofXrUXFSdM_14my_http_server4test11integration13with_cwd_lockINtNtCsgS7EKHCc5jD_4core6result6ResultNtNtCs1S013FBku8r_5alloc6string6StringNtNtB6_5error8AppErrorENCNvB2_s_42test_template_context_env_vars_integration0EB6_
FNDA:1,_RINvNtNtCs9ofXrUXFSdM_14my_http_server4test11integration13with_cwd_lockNtNtCs1S013FBku8r_5alloc6string6StringNCNvB2_s_36test_full_request_flow_directory_toc0EB6_
FNDA:1,_RNCINvNtNtCs9ofXrUXFSdM_14my_http_server4test11integration13with_cwd_lockINtNtCsgS7EKHCc5jD_4core6result6ResultNtNtCs1S013FBku8r_5alloc6string6StringNtNtB8_5error8AppErrorENCNvB4_s_27test_template_data_override0E0B8_
FNDA:1,_RNCINvNtNtCs9ofXrUXFSdM_14my_http_server4test11integration13with_cwd_lockINtNtCsgS7EKHCc5jD_4core6result6ResultNtNtCs1S013FBku8r_5alloc6string6StringNtNtB8_5error8AppErrorENCNvB4_s_28test_template_body_injection0E0B8_
FNDA:1,_RNCINvNtNtCs9ofXrUXFSdM_14my_http_server4test11integration13with_cwd_lockINtNtCsgS7EKHCc5jD_4core6result6ResultNtNtCs1S013FBku8r_5alloc6string6StringNtNtB8_5error8AppErrorENCNvB4_s_29test_md2html_basic_conversion0E0B8_
FNDA:1,_RNCINvNtNtCs9ofXrUXFSdM_14my_http_server4test11integration13with_cwd_lockINtNtCsgS7EKHCc5jD_4core6result6ResultNtNtCs1S013FBku8r_5alloc6string6StringNtNtB8_5error8AppErrorENCNvB4_s_29test_template_rendering_error0E0B8_
FNDA:1,_RNCINvNtNtCs9ofXrUXFSdM_14my_http_server4test11integration13with_cwd_lockINtNtCsgS7EKHCc5jD_4core6result6ResultNtNtCs1S013FBku8r_5alloc6string6StringNtNtB8_5error8AppErrorENCNvB4_s_30test_md2html_with_path_context0E0B8_
FNDA:1,_RNCINvNtNtCs9ofXrUXFSdM_14my_http_server4test11integration13with_cwd_lockINtNtCsgS7EKHCc5jD_4core6result6ResultNtNtCs1S013FBku8r_5alloc6string6StringNtNtB8_5error8AppErrorENCNvB4_s_35test_md2html_handles_empty_markdown0E0B8_
FNDA:1,_RNCINvNtNtCs9ofXrUXFSdM_14my_http_server4test11integration13with_cwd_lockINtNtCsgS7EKHCc5jD_4core6result6ResultNtNtCs1S013FBku8r_5alloc6string6StringNtNtB8_5error8AppErrorENCNvB4_s_35test_md2html_with_context_variables0E0B8_
FNDA:1,_RNCINvNtNtCs9ofXrUXFSdM_14my_http_server4test11integration13with_cwd_lockINtNtCsgS7EKHCc5jD_4core6result6ResultNtNtCs1S013FBku8r_5alloc6string6StringNtNtB8_5error8AppErrorENCNvB4_s_35test_multiple_template_data_entries0E0B8_
FNDA:1,_RNCINvNtNtCs9ofXrUXFSdM_14my_http_server4test11integration13with_cwd_lockINtNtCsgS7EKHCc5jD_4core6result6ResultNtNtCs1S013FBku8r_5alloc6string6StringNtNtB8_5error8AppErrorENCNvB4_s_42test_template_context_env_vars_integration0E0B8_
FNDA:1,_RNCINvNtNtCs9ofXrUXFSdM_14my_http_server4test11integration13with_cwd_lockNtNtCs1S013FBku8r_5alloc6string6StringNCNvB4_s_36test_full_request_flow_directory_toc0E0B8_
FNDA:5,_RNCNCNvNtNtCs9ofXrUXFSdM_14my_http_server4test11integrations_29test_concurrent_md2html_calls00B9_
FNDA:1,_RNCNvNtNtCs9ofXrUXFSdM_14my_http_server4test11integrations_27test_template_data_override0B7_
FNDA:1,_RNCNvNtNtCs9ofXrUXFSdM_14my_http_server4test11integrations_28test_template_body_injection0B7_
FNDA:5,_RNCNvNtNtCs9ofXrUXFSdM_14my_http_server4test11integrations_29test_concurrent_md2html_calls0B7_
FNDA:1,_RNCNvNtNtCs9ofXrUXFSdM_14my_http_server4test11integrations_29test_md2html_basic_conversion0B7_
FNDA:1,_RNCNvNtNtCs9ofXrUXFSdM_14my_http_server4test11integrations_29test_template_rendering_error0B7_
FNDA:1,_RNCNvNtNtCs9ofXrUXFSdM_14my_http_server4test11integrations_30test_md2html_with_path_context0B7_
FNDA:1,_RNCNvNtNtCs9ofXrUXFSdM_14my_http_server4test11integrations_35test_md2html_handles_empty_markdown0B7_
FNDA:1,_RNCNvNtNtCs9ofXrUXFSdM_14my_http_server4test11integrations_35test_md2html_with_context_variables0B7_
FNDA:1,_RNCNvNtNtCs9ofXrUXFSdM_14my_http_server4test11integrations_35test_multiple_template_data_entries0B7_
FNDA:1,_RNCNvNtNtCs9ofXrUXFSdM_14my_http_server4test11integrations_36test_full_request_flow_directory_toc0B7_
FNDA:1,_RNCNvNtNtCs9ofXrUXFSdM_14my_http_server4test11integrations_42test_template_context_env_vars_integration0B7_
FNDA:1,_RNvNtNtCs9ofXrUXFSdM_14my_http_server4test11integrations_18test_md2html_links
FNDA:1,_RNvNtNtCs9ofXrUXFSdM_14my_http_server4test11integrations_19test_md2html_images
FNDA:1,_RNvNtNtCs9ofXrUXFSdM_14my_http_server4test11integrations_19test_md2html_tables
FNDA:1,_RNvNtNtCs9ofXrUXFSdM_14my_http_server4test11integrations_24test_md2html_blockquotes
FNDA:1,_RNvNtNtCs9ofXrUXFSdM_14my_http_server4test11integrations_25test_md2html_nested_lists
FNDA:1,_RNvNtNtCs9ofXrUXFSdM_14my_http_server4test11integrations_26test_md2html_emoji_support
FNDA:1,_RNvNtNtCs9ofXrUXFSdM_14my_http_server4test11integrations_26test_md2html_mixed_content
FNDA:1,_RNvNtNtCs9ofXrUXFSdM_14my_http_server4test11integrations_27test_template_data_override
FNDA:1,_RNvNtNtCs9ofXrUXFSdM_14my_http_server4test11integrations_28test_md2html_unicode_content
FNDA:1,_RNvNtNtCs9ofXrUXFSdM_14my_http_server4test11integrations_28test_pipeline_error_handling
FNDA:1,_RNvNtNtCs9ofXrUXFSdM_14my_http_server4test11integrations_28test_template_body_injection
FNDA:1,_RNvNtNtCs9ofXrUXFSdM_14my_http_server4test11integrations_29test_concurrent_md2html_calls
FNDA:1,_RNvNtNtCs9ofXrUXFSdM_14my_http_server4test11integrations_29test_md2html_basic_conversion
FNDA:1,_RNvNtNtCs9ofXrUXFSdM_14my_http_server4test11integrations_29test_md2html_horizontal_rules
FNDA:1,_RNvNtNtCs9ofXrUXFSdM_14my_http_server4test11integrations_29test_template_rendering_error
FNDA:1,_RNvNtNtCs9ofXrUXFSdM_14my_http_server4test11integrations_30test_md2html_with_path_context
FNDA:1,_RNvNtNtCs9ofXrUXFSdM_14my_http_server4test11integrations_30test_server_version_in_context
FNDA:1,_RNvNtNtCs9ofXrUXFSdM_14my_http_server4test11integrations_33test_full_request_flow_with_index
FNDA:1,_RNvNtNtCs9ofXrUXFSdM_14my_http_server4test11integrations_34test_full_request_flow_static_file
FNDA:1,_RNvNtNtCs9ofXrUXFSdM_14my_http_server4test11integrations_35test_md2html_handles_empty_markdown
FNDA:1,_RNvNtNtCs9ofXrUXFSdM_14my_http_server4test11integrations_35test_md2html_with_context_variables
FNDA:1,_RNvNtNtCs9ofXrUXFSdM_14my_http_server4test11integrations_35test_multiple_template_data_entries
FNDA:1,_RNvNtNtCs9ofXrUXFSdM_14my_http_server4test11integrations_36test_full_request_flow_directory_toc
FNDA:1,_RNvNtNtCs9ofXrUXFSdM_14my_http_server4test11integrations_36test_full_request_flow_with_markdown
FNDA:1,_RNvNtNtCs9ofXrUXFSdM_14my_http_server4test11integrations_37test_md2html_preserves_html_structure
FNDA:1,_RNvNtNtCs9ofXrUXFSdM_14my_http_server4test11integrations_39test_md2html_handles_special_characters
FNDA:1,_RNvNtNtCs9ofXrUXFSdM_14my_http_server4test11integrations_42test_template_context_env_vars_integration
FNDA:1,_RNvNtNtCs9ofXrUXFSdM_14my_http_server4test11integrations_43test_md2html_code_block_syntax_highlighting
FNDA:1,_RNvNtNtCs9ofXrUXFSdM_14my_http_server4test11integrations_48test_template_context_type_inference_integration
FNDA:1,_RINvNtNtCslE1WvBQdpRb_14my_http_server4test11integration13with_cwd_lockINtNtCsgS7EKHCc5jD_4core6result6ResultNtNtCs1S013FBku8r_5alloc6string6StringNtNtB6_5error8AppErrorENCNvB2_s_27test_template_data_override0EB6_
FNDA:1,_RINvNtNtCslE1WvBQdpRb_14my_http_server4test11integration13with_cwd_lockINtNtCsgS7EKHCc5jD_4core6result6ResultNtNtCs1S013FBku8r_5alloc6string6StringNtNtB6_5error8AppErrorENCNvB2_s_28test_template_body_injection0EB6_
FNDA:1,_RINvNtNtCslE1WvBQdpRb_14my_http_server4test11integration13with_cwd_lockINtNtCsgS7EKHCc5jD_4core6result6ResultNtNtCs1S013FBku8r_5alloc6string6StringNtNtB6_5error8AppErrorENCNvB2_s_29test_md2html_basic_conversion0EB6_
FNDA:1,_RINvNtNtCslE1WvBQdpRb_14my_http_server4test11integration13with_cwd_lockINtNtCsgS7EKHCc5jD_4core6result6ResultNtNtCs1S013FBku8r_5alloc6string6StringNtNtB6_5error8AppErrorENCNvB2_s_29test_template_rendering_error0EB6_
FNDA:1,_RINvNtNtCslE1WvBQdpRb_14my_http_server4test11integration13with_cwd_lockINtNtCsgS7EKHCc5jD_4core6result6ResultNtNtCs1S013FBku8r_5alloc6string6StringNtNtB6_5error8AppErrorENCNvB2_s_30test_md2html_with_path_context0EB6_
FNDA:1,_RINvNtNtCslE1WvBQdpRb_14my_http_server4test11integration13with_cwd_lockINtNtCsgS7EKHCc5jD_4core6result6ResultNtNtCs1S013FBku8r_5alloc6string6StringNtNtB6_5error8AppErrorENCNvB2_s_35test_md2html_handles_empty_markdown0EB6_
FNDA:1,_RINvNtNtCslE1WvBQdpRb_14my_http_server4test11integration13with_cwd_lockINtNtCsgS7EKHCc5jD_4core6result6ResultNtNtCs1S013FBku8r_5alloc6string6StringNtNtB6_5error8AppErrorENCNvB2_s_35test_md2html_with_context_variables0EB6_
FNDA:1,_RINvNtNtCslE1WvBQdpRb_14my_http_server4test11integration13with_cwd_lockINtNtCsgS7EKHCc5jD_4core6result6ResultNtNtCs1S013FBku8r_5alloc6string6StringNtNtB6_5error8AppErrorENCNvB2_s_35test_multiple_template_data_entries0EB6_
FNDA:1,_RINvNtNtCslE1WvBQdpRb_14my_http_server4test11integration13with_cwd_lockINtNtCsgS7EKHCc5jD_4core6result6ResultNtNtCs1S013FBku8r_5alloc6string6StringNtNtB6_5error8AppErrorENCNvB2_s_42test_template_context_env_vars_integration0EB6_
FNDA:1,_RINvNtNtCslE1WvBQdpRb_14my_http_server4test11integration13with_cwd_lockNtNtCs1S013FBku8r_5alloc6string6StringNCNvB2_s_36test_full_request_flow_directory_toc0EB6_
FNDA:1,_RNCINvNtNtCslE1WvBQdpRb_14my_http_server4test11integration13with_cwd_lockINtNtCsgS7EKHCc5jD_4core6result6ResultNtNtCs1S013FBku8r_5alloc6string6StringNtNtB8_5error8AppErrorENCNvB4_s_27test_template_data_override0E0B8_
FNDA:1,_RNCINvNtNtCslE1WvBQdpRb_14my_http_server4test11integration13with_cwd_lockINtNtCsgS7EKHCc5jD_4core6result6ResultNtNtCs1S013FBku8r_5alloc6string6StringNtNtB8_5error8AppErrorENCNvB4_s_28test_template_body_injection0E0B8_
FNDA:1,_RNCINvNtNtCslE1WvBQdpRb_14my_http_server4test11integration13with_cwd_lockINtNtCsgS7EKHCc5jD_4core6result6ResultNtNtCs1S013FBku8r_5alloc6string6StringNtNtB8_5error8AppErrorENCNvB4_s_29test_md2html_basic_conversion0E0B8_
FNDA:1,_RNCINvNtNtCslE1WvBQdpRb_14my_http_server4test11integration13with_cwd_lockINtNtCsgS7EKHCc5jD_4core6result6ResultNtNtCs1S013FBku8r_5alloc6string6StringNtNtB8_5error8AppErrorENCNvB4_s_29test_template_rendering_error0E0B8_
FNDA:1,_RNCINvNtNtCslE1WvBQdpRb_14my_http_server4test11integration13with_cwd_lockINtNtCsgS7EKHCc5jD_4core6result6ResultNtNtCs1S013FBku8r_5alloc6string6StringNtNtB8_5error8AppErrorENCNvB4_s_30test_md2html_with_path_context0E0B8_
FNDA:1,_RNCINvNtNtCslE1WvBQdpRb_14my_http_server4test11integration13with_cwd_lockINtNtCsgS7EKHCc5jD_4core6result6ResultNtNtCs1S013FBku8r_5alloc6string6StringNtNtB8_5error8AppErrorENCNvB4_s_35test_md2html_handles_empty_markdown0E0B8_
FNDA:1,_RNCINvNtNtCslE1WvBQdpRb_14my_http_server4test11integration13with_cwd_lockINtNtCsgS7EKHCc5jD_4core6result6ResultNtNtCs1S013FBku8r_5alloc6string6StringNtNtB8_5error8AppErrorENCNvB4_s_35test_md2html_with_context_variables0E0B8_
FNDA:1,_RNCINvNtNtCslE1WvBQdpRb_14my_http_server4test11integration13with_cwd_lockINtNtCsgS7EKHCc5jD_4core6result6ResultNtNtCs1S013FBku8r_5alloc6string6StringNtNtB8_5error8AppErrorENCNvB4_s_35test_multiple_template_data_entries0E0B8_
FNDA:1,_RNCINvNtNtCslE1WvBQdpRb_14my_http_server4test11integration13with_cwd_lockINtNtCsgS7EKHCc5jD_4core6result6ResultNtNtCs1S013FBku8r_5alloc6string6StringNtNtB8_5error8AppErrorENCNvB4_s_42test_template_context_env_vars_integration0E0B8_
FNDA:1,_RNCINvNtNtCslE1WvBQdpRb_14my_http_server4test11integration13with_cwd_lockNtNtCs1S013FBku8r_5alloc6string6StringNCNvB4_s_36test_full_request_flow_directory_toc0E0B8_
FNDA:5,_RNCNCNvNtNtCslE1WvBQdpRb_14my_http_server4test11integrations_29test_concurrent_md2html_calls00B9_
FNDA:1,_RNCNvNtNtCslE1WvBQdpRb_14my_http_server4test11integrations_27test_template_data_override0B7_
FNDA:1,_RNCNvNtNtCslE1WvBQdpRb_14my_http_server4test11integrations_28test_template_body_injection0B7_
FNDA:5,_RNCNvNtNtCslE1WvBQdpRb_14my_http_server4test11integrations_29test_concurrent_md2html_calls0B7_
FNDA:1,_RNCNvNtNtCslE1WvBQdpRb_14my_http_server4test11integrations_29test_md2html_basic_conversion0B7_
FNDA:1,_RNCNvNtNtCslE1WvBQdpRb_14my_http_server4test11integrations_29test_template_rendering_error0B7_
FNDA:1,_RNCNvNtNtCslE1WvBQdpRb_14my_http_server4test11integrations_30test_md2html_with_path_context0B7_
FNDA:1,_RNCNvNtNtCslE1WvBQdpRb_14my_http_server4test11integrations_35test_md2html_handles_empty_markdown0B7_
FNDA:1,_RNCNvNtNtCslE1WvBQdpRb_14my_http_server4test11integrations_35test_md2html_with_context_variables0B7_
FNDA:1,_RNCNvNtNtCslE1WvBQdpRb_14my_http_server4test11integrations_35test_multiple_template_data_entries0B7_
FNDA:1,_RNCNvNtNtCslE1WvBQdpRb_14my_http_server4test11integrations_36test_full_request_flow_directory_toc0B7_
FNDA:1,_RNCNvNtNtCslE1WvBQdpRb_14my_http_server4test11integrations_42test_template_context_env_vars_integration0B7_
FNDA:1,_RNvNtNtCslE1WvBQdpRb_14my_http_server4test11integrations_18test_md2html_links
FNDA:1,_RNvNtNtCslE1WvBQdpRb_14my_http_server4test11integrations_19test_md2html_images
FNDA:1,_RNvNtNtCslE1WvBQdpRb_14my_http_server4test11integrations_19test_md2html_tables
FNDA:1,_RNvNtNtCslE1WvBQdpRb_14my_http_server4test11integrations_24test_md2html_blockquotes
FNDA:1,_RNvNtNtCslE1WvBQdpRb_14my_http_server4test11integrations_25test_md2html_nested_lists
FNDA:1,_RNvNtNtCslE1WvBQdpRb_14my_http_server4test11integrations_26test_md2html_emoji_support
FNDA:1,_RNvNtNtCslE1WvBQdpRb_14my_http_server4test11integrations_26test_md2html_mixed_content
FNDA:1,_RNvNtNtCslE1WvBQdpRb_14my_http_server4test11integrations_27test_template_data_override
FNDA:1,_RNvNtNtCslE1WvBQdpRb_14my_http_server4test11integrations_28test_md2html_unicode_content
FNDA:1,_RNvNtNtCslE1WvBQdpRb_14my_http_server4test11integrations_28test_pipeline_error_handling
FNDA:1,_RNvNtNtCslE1WvBQdpRb_14my_http_server4test11integrations_28test_template_body_injection
FNDA:1,_RNvNtNtCslE1WvBQdpRb_14my_http_server4test11integrations_29test_concurrent_md2html_calls
FNDA:1,_RNvNtNtCslE1WvBQdpRb_14my_http_server4test11integrations_29test_md2html_basic_conversion
FNDA:1,_RNvNtNtCslE1WvBQdpRb_14my_http_server4test11integrations_29test_md2html_horizontal_rules
FNDA:1,_RNvNtNtCslE1WvBQdpRb_14my_http_server4test11integrations_29test_template_rendering_error
FNDA:1,_RNvNtNtCslE1WvBQdpRb_14my_http_server4test11integrations_30test_md2html_with_path_context
FNDA:1,_RNvNtNtCslE1WvBQdpRb_14my_http_server4test11integrations_30test_server_version_in_context
FNDA:1,_RNvNtNtCslE1WvBQdpRb_14my_http_server4test11integrations_33test_full_request_flow_with_index
FNDA:1,_RNvNtNtCslE1WvBQdpRb_14my_http_server4test11integrations_34test_full_request_flow_static_file
FNDA:1,_RNvNtNtCslE1WvBQdpRb_14my_http_server4test11integrations_35test_md2html_handles_empty_markdown
FNDA:1,_RNvNtNtCslE1WvBQdpRb_14my_http_server4test11integrations_35test_md2html_with_context_variables
FNDA:1,_RNvNtNtCslE1WvBQdpRb_14my_http_server4test11integrations_35test_multiple_template_data_entries
FNDA:1,_RNvNtNtCslE1WvBQdpRb_14my_http_server4test11integrations_36test_full_request_flow_directory_toc
FNDA:1,_RNvNtNtCslE1WvBQdpRb_14my_http_server4test11integrations_36test_full_request_flow_with_markdown
FNDA:1,_RNvNtNtCslE1WvBQdpRb_14my_http_server4test11integrations_37test_md2html_preserves_html_structure
FNDA:1,_RNvNtNtCslE1WvBQdpRb_14my_http_server4test11integrations_39test_md2html_handles_special_characters
FNDA:1,_RNvNtNtCslE1WvBQdpRb_14my_http_server4test11integrations_42test_template_context_env_vars_integration
FNDA:1,_RNvNtNtCslE1WvBQdpRb_14my_http_server4test11integrations_43test_md2html_code_block_syntax_highlighting
FNDA:1,_RNvNtNtCslE1WvBQdpRb_14my_http_server4test11integrations_48test_template_context_type_inference_integration
FNF:43
FNH:43
DA:23,40
DA:25,40
DA:27,40
DA:28,40
DA:32,40
DA:33,0
DA:34,40
DA:38,40
DA:39,40
DA:40,40
DA:41,40
DA:43,40
DA:44,0
DA:45,40
DA:47,40
DA:49,40
DA:50,40
DA:51,0
DA:53,40
DA:54,40
DA:55,40
DA:56,40
DA:62,4
DA:63,4
DA:66,4
DA:67,4
DA:69,4
DA:70,4
DA:71,4
DA:72,4
DA:73,4
DA:75,4
DA:77,4
DA:78,4
DA:80,4
DA:81,4
DA:82,4
DA:83,4
DA:84,4
DA:85,4
DA:87,4
DA:88,4
DA:89,4
DA:90,4
DA:91,4
DA:92,4
DA:95,4
DA:97,4
DA:98,4
DA:99,4
DA:101,4
DA:102,4
DA:104,4
DA:105,4
DA:107,4
DA:108,4
DA:109,4
DA:110,4
DA:111,4
DA:112,4
DA:113,4
DA:115,4
DA:116,4
DA:117,4
DA:118,4
DA:119,4
DA:122,4
DA:124,4
DA:125,4
DA:126,4
DA:127,4
DA:128,4
DA:130,4
DA:131,4
DA:133,4
DA:134,4
DA:136,4
DA:137,4
DA:138,4
DA:139,4
DA:140,4
DA:142,4
DA:143,4
DA:144,4
DA:145,4
DA:148,4
DA:149,4
DA:150,4
DA:151,4
DA:152,4
DA:153,4
DA:154,4
DA:155,4
DA:156,4
DA:157,4
DA:158,4
DA:159,4
DA:160,4
DA:162,4
DA:163,4
DA:164,4
DA:166,4
DA:167,4
DA:170,4
DA:171,4
DA:172,4
DA:173,4
DA:174,4
DA:175,4
DA:177,4
DA:178,4
DA:179,4
DA:180,4
DA:181,4
DA:182,4
DA:184,4
DA:185,4
DA:186,4
DA:187,4
DA:188,4
DA:191,4
DA:192,4
DA:193,4
DA:194,4
DA:196,4
DA:199,4
DA:200,4
DA:201,4
DA:202,4
DA:203,4
DA:204,4
DA:205,4
DA:207,4
DA:208,4
DA:209,4
DA:210,4
DA:211,4
DA:214,4
DA:215,4
DA:216,4
DA:217,4
DA:218,4
DA:221,4
DA:222,4
DA:223,4
DA:224,4
DA:225,4
DA:228,4
DA:229,4
DA:230,4
DA:231,4
DA:232,4
DA:233,4
DA:235,4
DA:236,4
DA:237,4
DA:238,4
DA:239,4
DA:242,4
DA:243,4
DA:244,4
DA:245,4
DA:246,4
DA:249,4
DA:250,4
DA:251,4
DA:252,4
DA:253,4
DA:256,4
DA:257,4
DA:258,4
DA:259,4
DA:260,4
DA:262,4
DA:263,4
DA:264,4
DA:267,4
DA:268,4
DA:269,4
DA:270,4
DA:271,4
DA:272,4
DA:273,4
DA:274,4
DA:275,4
DA:276,4
DA:277,4
DA:278,4
DA:279,4
DA:280,4
DA:281,4
DA:282,4
DA:283,4
DA:284,4
DA:285,4
DA:287,4
DA:288,4
DA:289,4
DA:291,4
DA:292,4
DA:295,4
DA:296,4
DA:297,4
DA:300,4
DA:301,4
DA:302,4
DA:303,4
DA:304,4
DA:305,4
DA:307,4
DA:310,4
DA:312,4
DA:313,4
DA:314,4
DA:315,4
DA:316,4
DA:319,4
DA:320,4
DA:323,4
DA:324,4
DA:325,4
DA:327,4
DA:328,4
DA:329,4
DA:330,4
DA:331,4
DA:332,4
DA:333,4
DA:336,4
DA:337,4
DA:338,4
DA:340,4
DA:341,4
DA:342,4
DA:343,4
DA:344,0
DA:347,4
DA:348,4
DA:349,0
DA:352,4
DA:353,4
DA:354,0
DA:357,4
DA:360,4
DA:362,4
DA:363,4
DA:364,4
DA:365,4
DA:366,4
DA:368,4
DA:369,4
DA:371,4
DA:372,4
DA:373,4
DA:374,4
DA:375,4
DA:376,4
DA:378,4
DA:379,4
DA:380,4
DA:381,4
DA:382,4
DA:383,4
DA:386,4
DA:388,4
DA:389,4
DA:391,4
DA:392,4
DA:395,4
DA:396,4
DA:397,4
DA:398,4
DA:401,4
DA:402,4
DA:403,4
DA:404,4
DA:405,4
DA:406,4
DA:408,4
DA:409,4
DA:411,4
DA:412,4
DA:413,4
DA:414,4
DA:415,4
DA:416,4
DA:417,4
DA:419,4
DA:420,4
DA:422,4
DA:423,4
DA:424,4
DA:425,4
DA:426,4
DA:427,4
DA:430,4
DA:432,4
DA:433,4
DA:434,4
DA:435,4
DA:436,4
DA:438,4
DA:439,4
DA:441,4
DA:442,4
DA:443,4
DA:444,4
DA:445,4
DA:446,4
DA:448,4
DA:449,4
DA:450,4
DA:451,4
DA:452,4
DA:455,4
DA:456,4
DA:457,4
DA:458,4
DA:460,4
DA:463,4
DA:465,4
DA:466,4
DA:469,4
DA:470,4
DA:473,4
DA:475,4
DA:476,4
DA:479,4
DA:480,4
DA:483,4
DA:485,4
DA:486,4
DA:487,4
DA:490,4
DA:491,4
DA:493,4
DA:494,4
DA:495,4
DA:496,4
DA:497,4
DA:502,4
DA:504,0
DA:507,4
DA:509,4
DA:512,4
DA:516,4
DA:517,20
DA:518,20
DA:519,20
DA:520,20
DA:521,20
DA:522,20
DA:523,20
DA:524,20
DA:525,4
DA:527,24
DA:528,20
DA:529,20
DA:531,4
DA:534,4
DA:535,4
DA:536,4
DA:537,4
DA:540,4
DA:541,4
DA:544,4
DA:545,4
DA:546,4
DA:547,4
DA:550,4
DA:551,4
DA:552,4
DA:553,4
DA:556,4
DA:557,4
DA:560,4
DA:561,4
DA:562,4
DA:563,4
DA:564,4
DA:567,4
DA:568,4
DA:569,4
DA:570,4
DA:573,4
DA:574,4
DA:577,4
DA:578,4
DA:579,4
DA:580,4
DA:583,4
DA:586,4
DA:587,4
DA:588,4
DA:589,4
DA:592,4
DA:593,4
DA:600,4
DA:601,4
DA:602,4
DA:603,4
DA:605,4
DA:606,4
DA:607,4
DA:608,4
DA:609,4
DA:610,4
DA:611,4
DA:612,4
DA:613,0
DA:615,4
DA:619,4
DA:620,4
DA:621,4
DA:622,0
DA:625,4
BRF:0
BRH:0
LF:429
LH:420
end_of_record
SF:C:\Users\pl816\OneDrive\文件\git\my-http-server\src\test\parser.rs
FN:247,_RNvNtNtCsJUKjIpJSKG_14my_http_server4test6parsers_20test_parser_md_links
FN:240,_RNvNtNtCsJUKjIpJSKG_14my_http_server4test6parsers_20test_parser_md_lists
FN:254,_RNvNtNtCsJUKjIpJSKG_14my_http_server4test6parsers_23test_parser_md_emphasis
FN:38,_RNvNtNtCsJUKjIpJSKG_14my_http_server4test6parsers_24test_get_toc_single_file
FN:261,_RNvNtNtCsJUKjIpJSKG_14my_http_server4test6parsers_26test_parser_md_blockquotes
FN:233,_RNvNtNtCsJUKjIpJSKG_14my_http_server4test6parsers_26test_parser_md_code_blocks
FN:125,_RNvNtNtCsJUKjIpJSKG_14my_http_server4test6parsers_27test_get_toc_ignore_pattern
FN:275,_RNvNtNtCsJUKjIpJSKG_14my_http_server4test6parsers_28test_parser_md_mixed_content
FN:226,_RNvNtNtCsJUKjIpJSKG_14my_http_server4test6parsers_29test_parser_md_heading_levels
FN:186,_RNvNtNtCsJUKjIpJSKG_14my_http_server4test6parsers_30test_get_toc_unicode_filenames
FN:268,_RNvNtNtCsJUKjIpJSKG_14my_http_server4test6parsers_30test_parser_md_horizontal_rule
FN:166,_RNvNtNtCsJUKjIpJSKG_14my_http_server4test6parsers_31test_get_toc_special_characters
FN:80,_RNvNtNtCsJUKjIpJSKG_14my_http_server4test6parsers_32test_get_toc_extension_filtering
FN:103,_RNvNtNtCsJUKjIpJSKG_14my_http_server4test6parsers_32test_get_toc_multiple_extensions
FN:29,_RNvNtNtCsJUKjIpJSKG_14my_http_server4test6parsers_34test_parser_md_handles_empty_input
FN:6,_RNvNtNtCsJUKjIpJSKG_14my_http_server4test6parsers_36test_get_toc_handles_empty_directory
FN:57,_RNvNtNtCsJUKjIpJSKG_14my_http_server4test6parsers_36test_get_toc_multi_level_directories
FN:148,_RNvNtNtCsJUKjIpJSKG_14my_http_server4test6parsers_36test_get_toc_percent_encoding_spaces
FN:22,_RNvNtNtCsJUKjIpJSKG_14my_http_server4test6parsers_36test_parser_md_parses_valid_markdown
FN:205,_RNvNtNtCsJUKjIpJSKG_14my_http_server4test6parsers_40test_get_toc_mixed_files_and_directories
FN:247,_RNvNtNtCsgBNAdYuGUwB_14my_http_server4test6parsers_20test_parser_md_links
FN:240,_RNvNtNtCsgBNAdYuGUwB_14my_http_server4test6parsers_20test_parser_md_lists
FN:254,_RNvNtNtCsgBNAdYuGUwB_14my_http_server4test6parsers_23test_parser_md_emphasis
FN:38,_RNvNtNtCsgBNAdYuGUwB_14my_http_server4test6parsers_24test_get_toc_single_file
FN:261,_RNvNtNtCsgBNAdYuGUwB_14my_http_server4test6parsers_26test_parser_md_blockquotes
FN:233,_RNvNtNtCsgBNAdYuGUwB_14my_http_server4test6parsers_26test_parser_md_code_blocks
FN:125,_RNvNtNtCsgBNAdYuGUwB_14my_http_server4test6parsers_27test_get_toc_ignore_pattern
FN:275,_RNvNtNtCsgBNAdYuGUwB_14my_http_server4test6parsers_28test_parser_md_mixed_content
FN:226,_RNvNtNtCsgBNAdYuGUwB_14my_http_server4test6parsers_29test_parser_md_heading_levels
FN:186,_RNvNtNtCsgBNAdYuGUwB_14my_http_server4test6parsers_30test_get_toc_unicode_filenames
FN:268,_RNvNtNtCsgBNAdYuGUwB_14my_http_server4test6parsers_30test_parser_md_horizontal_rule
FN:166,_RNvNtNtCsgBNAdYuGUwB_14my_http_server4test6parsers_31test_get_toc_special_characters
FN:80,_RNvNtNtCsgBNAdYuGUwB_14my_http_server4test6parsers_32test_get_toc_extension_filtering
FN:103,_RNvNtNtCsgBNAdYuGUwB_14my_http_server4test6parsers_32test_get_toc_multiple_extensions
FN:29,_RNvNtNtCsgBNAdYuGUwB_14my_http_server4test6parsers_34test_parser_md_handles_empty_input
FN:6,_RNvNtNtCsgBNAdYuGUwB_14my_http_server4test6parsers_36test_get_toc_handles_empty_directory
FN:57,_RNvNtNtCsgBNAdYuGUwB_14my_http_server4test6parsers_36test_get_toc_multi_level_directories
FN:148,_RNvNtNtCsgBNAdYuGUwB_14my_http_server4test6parsers_36test_get_toc_percent_encoding_spaces
FN:22,_RNvNtNtCsgBNAdYuGUwB_14my_http_server4test6parsers_36test_parser_md_parses_valid_markdown
FN:205,_RNvNtNtCsgBNAdYuGUwB_14my_http_server4test6parsers_40test_get_toc_mixed_files_and_directories
FN:247,_RNvNtNtCs9ofXrUXFSdM_14my_http_server4test6parsers_20test_parser_md_links
FN:240,_RNvNtNtCs9ofXrUXFSdM_14my_http_server4test6parsers_20test_parser_md_lists
FN:254,_RNvNtNtCs9ofXrUXFSdM_14my_http_server4test6parsers_23test_parser_md_emphasis
FN:38,_RNvNtNtCs9ofXrUXFSdM_14my_http_server4test6parsers_24test_get_toc_single_file
FN:261,_RNvNtNtCs9ofXrUXFSdM_14my_http_server4test6parsers_26test_parser_md_blockquotes
FN:233,_RNvNtNtCs9ofXrUXFSdM_14my_http_server4test6parsers_26test_parser_md_code_blocks
FN:125,_RNvNtNtCs9ofXrUXFSdM_14my_http_server4test6parsers_27test_get_toc_ignore_pattern
FN:275,_RNvNtNtCs9ofXrUXFSdM_14my_http_server4test6parsers_28test_parser_md_mixed_content
FN:226,_RNvNtNtCs9ofXrUXFSdM_14my_http_server4test6parsers_29test_parser_md_heading_levels
FN:186,_RNvNtNtCs9ofXrUXFSdM_14my_http_server4test6parsers_30test_get_toc_unicode_filenames
FN:268,_RNvNtNtCs9ofXrUXFSdM_14my_http_server4test6parsers_30test_parser_md_horizontal_rule
FN:166,_RNvNtNtCs9ofXrUXFSdM_14my_http_server4test6parsers_31test_get_toc_special_characters
FN:80,_RNvNtNtCs9ofXrUXFSdM_14my_http_server4test6parsers_32test_get_toc_extension_filtering
FN:103,_RNvNtNtCs9ofXrUXFSdM_14my_http_server4test6parsers_32test_get_toc_multiple_extensions
FN:29,_RNvNtNtCs9ofXrUXFSdM_14my_http_server4test6parsers_34test_parser_md_handles_empty_input
FN:6,_RNvNtNtCs9ofXrUXFSdM_14my_http_server4test6parsers_36test_get_toc_handles_empty_directory
FN:57,_RNvNtNtCs9ofXrUXFSdM_14my_http_server4test6parsers_36test_get_toc_multi_level_directories
FN:148,_RNvNtNtCs9ofXrUXFSdM_14my_http_server4test6parsers_36test_get_toc_percent_encoding_spaces
FN:22,_RNvNtNtCs9ofXrUXFSdM_14my_http_server4test6parsers_36test_parser_md_parses_valid_markdown
FN:205,_RNvNtNtCs9ofXrUXFSdM_14my_http_server4test6parsers_40test_get_toc_mixed_files_and_directories
FN:247,_RNvNtNtCslE1WvBQdpRb_14my_http_server4test6parsers_20test_parser_md_links
FN:240,_RNvNtNtCslE1WvBQdpRb_14my_http_server4test6parsers_20test_parser_md_lists
FN:254,_RNvNtNtCslE1WvBQdpRb_14my_http_server4test6parsers_23test_parser_md_emphasis
FN:38,_RNvNtNtCslE1WvBQdpRb_14my_http_server4test6parsers_24test_get_toc_single_file
FN:261,_RNvNtNtCslE1WvBQdpRb_14my_http_server4test6parsers_26test_parser_md_blockquotes
FN:233,_RNvNtNtCslE1WvBQdpRb_14my_http_server4test6parsers_26test_parser_md_code_blocks
FN:125,_RNvNtNtCslE1WvBQdpRb_14my_http_server4test6parsers_27test_get_toc_ignore_pattern
FN:275,_RNvNtNtCslE1WvBQdpRb_14my_http_server4test6parsers_28test_parser_md_mixed_content
FN:226,_RNvNtNtCslE1WvBQdpRb_14my_http_server4test6parsers_29test_parser_md_heading_levels
FN:186,_RNvNtNtCslE1WvBQdpRb_14my_http_server4test6parsers_30test_get_toc_unicode_filenames
FN:268,_RNvNtNtCslE1WvBQdpRb_14my_http_server4test6parsers_30test_parser_md_horizontal_rule
FN:166,_RNvNtNtCslE1WvBQdpRb_14my_http_server4test6parsers_31test_get_toc_special_characters
FN:80,_RNvNtNtCslE1WvBQdpRb_14my_http_server4test6parsers_32test_get_toc_extension_filtering
FN:103,_RNvNtNtCslE1WvBQdpRb_14my_http_server4test6parsers_32test_get_toc_multiple_extensions
FN:29,_RNvNtNtCslE1WvBQdpRb_14my_http_server4test6parsers_34test_parser_md_handles_empty_input
FN:6,_RNvNtNtCslE1WvBQdpRb_14my_http_server4test6parsers_36test_get_toc_handles_empty_directory
FN:57,_RNvNtNtCslE1WvBQdpRb_14my_http_server4test6parsers_36test_get_toc_multi_level_directories
FN:148,_RNvNtNtCslE1WvBQdpRb_14my_http_server4test6parsers_36test_get_toc_percent_encoding_spaces
FN:22,_RNvNtNtCslE1WvBQdpRb_14my_http_server4test6parsers_36test_parser_md_parses_valid_markdown
FN:205,_RNvNtNtCslE1WvBQdpRb_14my_http_server4test6parsers_40test_get_toc_mixed_files_and_directories
FNDA:1,_RNvNtNtCsJUKjIpJSKG_14my_http_server4test6parsers_20test_parser_md_links
FNDA:1,_RNvNtNtCsJUKjIpJSKG_14my_http_server4test6parsers_20test_parser_md_lists
FNDA:1,_RNvNtNtCsJUKjIpJSKG_14my_http_server4test6parsers_23test_parser_md_emphasis
FNDA:1,_RNvNtNtCsJUKjIpJSKG_14my_http_server4test6parsers_24test_get_toc_single_file
FNDA:1,_RNvNtNtCsJUKjIpJSKG_14my_http_server4test6parsers_26test_parser_md_blockquotes
FNDA:1,_RNvNtNtCsJUKjIpJSKG_14my_http_server4test6parsers_26test_parser_md_code_blocks
FNDA:1,_RNvNtNtCsJUKjIpJSKG_14my_http_server4test6parsers_27test_get_toc_ignore_pattern
FNDA:1,_RNvNtNtCsJUKjIpJSKG_14my_http_server4test6parsers_28test_parser_md_mixed_content
FNDA:1,_RNvNtNtCsJUKjIpJSKG_14my_http_server4test6parsers_29test_parser_md_heading_levels
FNDA:1,_RNvNtNtCsJUKjIpJSKG_14my_http_server4test6parsers_30test_get_toc_unicode_filenames
FNDA:1,_RNvNtNtCsJUKjIpJSKG_14my_http_server4test6parsers_30test_parser_md_horizontal_rule
FNDA:1,_RNvNtNtCsJUKjIpJSKG_14my_http_server4test6parsers_31test_get_toc_special_characters
FNDA:1,_RNvNtNtCsJUKjIpJSKG_14my_http_server4test6parsers_32test_get_toc_extension_filtering
FNDA:1,_RNvNtNtCsJUKjIpJSKG_14my_http_server4test6parsers_32test_get_toc_multiple_extensions
FNDA:1,_RNvNtNtCsJUKjIpJSKG_14my_http_server4test6parsers_34test_parser_md_handles_empty_input
FNDA:1,_RNvNtNtCsJUKjIpJSKG_14my_http_server4test6parsers_36test_get_toc_handles_empty_directory
FNDA:1,_RNvNtNtCsJUKjIpJSKG_14my_http_server4test6parsers_36test_get_toc_multi_level_directories
FNDA:1,_RNvNtNtCsJUKjIpJSKG_14my_http_server4test6parsers_36test_get_toc_percent_encoding_spaces
FNDA:1,_RNvNtNtCsJUKjIpJSKG_14my_http_server4test6parsers_36test_parser_md_parses_valid_markdown
FNDA:1,_RNvNtNtCsJUKjIpJSKG_14my_http_server4test6parsers_40test_get_toc_mixed_files_and_directories
FNDA:1,_RNvNtNtCsgBNAdYuGUwB_14my_http_server4test6parsers_20test_parser_md_links
FNDA:1,_RNvNtNtCsgBNAdYuGUwB_14my_http_server4test6parsers_20test_parser_md_lists
FNDA:1,_RNvNtNtCsgBNAdYuGUwB_14my_http_server4test6parsers_23test_parser_md_emphasis
FNDA:1,_RNvNtNtCsgBNAdYuGUwB_14my_http_server4test6parsers_24test_get_toc_single_file
FNDA:1,_RNvNtNtCsgBNAdYuGUwB_14my_http_server4test6parsers_26test_parser_md_blockquotes
FNDA:1,_RNvNtNtCsgBNAdYuGUwB_14my_http_server4test6parsers_26test_parser_md_code_blocks
FNDA:1,_RNvNtNtCsgBNAdYuGUwB_14my_http_server4test6parsers_27test_get_toc_ignore_pattern
FNDA:1,_RNvNtNtCsgBNAdYuGUwB_14my_http_server4test6parsers_28test_parser_md_mixed_content
FNDA:1,_RNvNtNtCsgBNAdYuGUwB_14my_http_server4test6parsers_29test_parser_md_heading_levels
FNDA:1,_RNvNtNtCsgBNAdYuGUwB_14my_http_server4test6parsers_30test_get_toc_unicode_filenames
FNDA:1,_RNvNtNtCsgBNAdYuGUwB_14my_http_server4test6parsers_30test_parser_md_horizontal_rule
FNDA:1,_RNvNtNtCsgBNAdYuGUwB_14my_http_server4test6parsers_31test_get_toc_special_characters
FNDA:1,_RNvNtNtCsgBNAdYuGUwB_14my_http_server4test6parsers_32test_get_toc_extension_filtering
FNDA:1,_RNvNtNtCsgBNAdYuGUwB_14my_http_server4test6parsers_32test_get_toc_multiple_extensions
FNDA:1,_RNvNtNtCsgBNAdYuGUwB_14my_http_server4test6parsers_34test_parser_md_handles_empty_input
FNDA:1,_RNvNtNtCsgBNAdYuGUwB_14my_http_server4test6parsers_36test_get_toc_handles_empty_directory
FNDA:1,_RNvNtNtCsgBNAdYuGUwB_14my_http_server4test6parsers_36test_get_toc_multi_level_directories
FNDA:1,_RNvNtNtCsgBNAdYuGUwB_14my_http_server4test6parsers_36test_get_toc_percent_encoding_spaces
FNDA:1,_RNvNtNtCsgBNAdYuGUwB_14my_http_server4test6parsers_36test_parser_md_parses_valid_markdown
FNDA:1,_RNvNtNtCsgBNAdYuGUwB_14my_http_server4test6parsers_40test_get_toc_mixed_files_and_directories
FNDA:1,_RNvNtNtCs9ofXrUXFSdM_14my_http_server4test6parsers_20test_parser_md_links
FNDA:1,_RNvNtNtCs9ofXrUXFSdM_14my_http_server4test6parsers_20test_parser_md_lists
FNDA:1,_RNvNtNtCs9ofXrUXFSdM_14my_http_server4test6parsers_23test_parser_md_emphasis
FNDA:1,_RNvNtNtCs9ofXrUXFSdM_14my_http_server4test6parsers_24test_get_toc_single_file
FNDA:1,_RNvNtNtCs9ofXrUXFSdM_14my_http_server4test6parsers_26test_parser_md_blockquotes
FNDA:1,_RNvNtNtCs9ofXrUXFSdM_14my_http_server4test6parsers_26test_parser_md_code_blocks
FNDA:1,_RNvNtNtCs9ofXrUXFSdM_14my_http_server4test6parsers_27test_get_toc_ignore_pattern
FNDA:1,_RNvNtNtCs9ofXrUXFSdM_14my_http_server4test6parsers_28test_parser_md_mixed_content
FNDA:1,_RNvNtNtCs9ofXrUXFSdM_14my_http_server4test6parsers_29test_parser_md_heading_levels
FNDA:1,_RNvNtNtCs9ofXrUXFSdM_14my_http_server4test6parsers_30test_get_toc_unicode_filenames
FNDA:1,_RNvNtNtCs9ofXrUXFSdM_14my_http_server4test6parsers_30test_parser_md_horizontal_rule
FNDA:1,_RNvNtNtCs9ofXrUXFSdM_14my_http_server4test6parsers_31test_get_toc_special_characters
FNDA:1,_RNvNtNtCs9ofXrUXFSdM_14my_http_server4test6parsers_32test_get_toc_extension_filtering
FNDA:1,_RNvNtNtCs9ofXrUXFSdM_14my_http_server4test6parsers_32test_get_toc_multiple_extensions
FNDA:1,_RNvNtNtCs9ofXrUXFSdM_14my_http_server4test6parsers_34test_parser_md_handles_empty_input
FNDA:1,_RNvNtNtCs9ofXrUXFSdM_14my_http_server4test6parsers_36test_get_toc_handles_empty_directory
FNDA:1,_RNvNtNtCs9ofXrUXFSdM_14my_http_server4test6parsers_36test_get_toc_multi_level_directories
FNDA:1,_RNvNtNtCs9ofXrUXFSdM_14my_http_server4test6parsers_36test_get_toc_percent_encoding_spaces
FNDA:1,_RNvNtNtCs9ofXrUXFSdM_14my_http_server4test6parsers_36test_parser_md_parses_valid_markdown
FNDA:1,_RNvNtNtCs9ofXrUXFSdM_14my_http_server4test6parsers_40test_get_toc_mixed_files_and_directories
FNDA:1,_RNvNtNtCslE1WvBQdpRb_14my_http_server4test6parsers_20test_parser_md_links
FNDA:1,_RNvNtNtCslE1WvBQdpRb_14my_http_server4test6parsers_20test_parser_md_lists
FNDA:1,_RNvNtNtCslE1WvBQdpRb_14my_http_server4test6parsers_23test_parser_md_emphasis
FNDA:1,_RNvNtNtCslE1WvBQdpRb_14my_http_server4test6parsers_24test_get_toc_single_file
FNDA:1,_RNvNtNtCslE1WvBQdpRb_14my_http_server4test6parsers_26test_parser_md_blockquotes
FNDA:1,_RNvNtNtCslE1WvBQdpRb_14my_http_server4test6parsers_26test_parser_md_code_blocks
FNDA:1,_RNvNtNtCslE1WvBQdpRb_14my_http_server4test6parsers_27test_get_toc_ignore_pattern
FNDA:1,_RNvNtNtCslE1WvBQdpRb_14my_http_server4test6parsers_28test_parser_md_mixed_content
FNDA:1,_RNvNtNtCslE1WvBQdpRb_14my_http_server4test6parsers_29test_parser_md_heading_levels
FNDA:1,_RNvNtNtCslE1WvBQdpRb_14my_http_server4test6parsers_30test_get_toc_unicode_filenames
FNDA:1,_RNvNtNtCslE1WvBQdpRb_14my_http_server4test6parsers_30test_parser_md_horizontal_rule
FNDA:1,_RNvNtNtCslE1WvBQdpRb_14my_http_server4test6parsers_31test_get_toc_special_characters
FNDA:1,_RNvNtNtCslE1WvBQdpRb_14my_http_server4test6parsers_32test_get_toc_extension_filtering
FNDA:1,_RNvNtNtCslE1WvBQdpRb_14my_http_server4test6parsers_32test_get_toc_multiple_extensions
FNDA:1,_RNvNtNtCslE1WvBQdpRb_14my_http_server4test6parsers_34test_parser_md_handles_empty_input
FNDA:1,_RNvNtNtCslE1WvBQdpRb_14my_http_server4test6parsers_36test_get_toc_handles_empty_directory
FNDA:1,_RNvNtNtCslE1WvBQdpRb_14my_http_server4test6parsers_36test_get_toc_multi_level_directories
FNDA:1,_RNvNtNtCslE1WvBQdpRb_14my_http_server4test6parsers_36test_get_toc_percent_encoding_spaces
FNDA:1,_RNvNtNtCslE1WvBQdpRb_14my_http_server4test6parsers_36test_parser_md_parses_valid_markdown
FNDA:1,_RNvNtNtCslE1WvBQdpRb_14my_http_server4test6parsers_40test_get_toc_mixed_files_and_directories
FNF:20
FNH:20
DA:6,4
DA:7,4
DA:8,4
DA:10,4
DA:11,4
DA:12,4
DA:13,4
DA:14,4
DA:16,4
DA:17,4
DA:18,4
DA:19,4
DA:22,4
DA:23,4
DA:24,4
DA:25,4
DA:26,4
DA:29,4
DA:30,4
DA:31,4
DA:32,4
DA:33,4
DA:38,4
DA:39,4
DA:40,4
DA:43,4
DA:45,4
DA:46,4
DA:47,4
DA:48,4
DA:49,4
DA:51,4
DA:52,4
DA:53,4
DA:54,4
DA:57,4
DA:58,4
DA:59,4
DA:62,4
DA:63,4
DA:64,4
DA:65,4
DA:67,4
DA:68,4
DA:69,4
DA:70,4
DA:71,4
DA:73,4
DA:74,4
DA:75,4
DA:76,4
DA:77,4
DA:80,4
DA:81,4
DA:82,4
DA:85,4
DA:86,4
DA:87,4
DA:89,4
DA:90,4
DA:91,4
DA:92,4
DA:93,4
DA:95,4
DA:97,4
DA:100,4
DA:103,4
DA:104,4
DA:105,4
DA:107,4
DA:108,4
DA:109,4
DA:111,4
DA:112,4
DA:113,4
DA:114,4
DA:115,4
DA:116,4
DA:118,4
DA:119,4
DA:120,4
DA:121,4
DA:122,4
DA:125,4
DA:126,4
DA:127,4
DA:129,4
DA:130,4
DA:131,4
DA:132,4
DA:134,4
DA:135,4
DA:136,4
DA:137,4
DA:138,4
DA:139,4
DA:140,4
DA:142,4
DA:143,4
DA:145,4
DA:148,4
DA:149,4
DA:150,4
DA:152,4
DA:154,4
DA:155,4
DA:156,4
DA:157,4
DA:158,4
DA:160,4
DA:162,4
DA:163,4
DA:166,4
DA:167,4
DA:168,4
DA:171,4
DA:172,4
DA:174,4
DA:175,4
DA:176,4
DA:177,4
DA:178,4
DA:180,4
DA:181,4
DA:182,4
DA:183,4
DA:186,4
DA:187,4
DA:188,4
DA:190,4
DA:191,4
DA:193,4
DA:194,4
DA:195,4
DA:196,4
DA:197,4
DA:199,4
DA:201,4
DA:202,4
DA:205,4
DA:206,4
DA:207,4
DA:209,4
DA:210,4
DA:211,4
DA:212,4
DA:214,4
DA:215,4
DA:216,4
DA:217,4
DA:218,4
DA:220,4
DA:221,4
DA:222,4
DA:223,4
DA:226,4
DA:227,4
DA:228,4
DA:229,4
DA:230,4
DA:233,4
DA:234,4
DA:235,4
DA:236,4
DA:237,4
DA:240,4
DA:241,4
DA:242,4
DA:243,4
DA:244,4
DA:247,4
DA:248,4
DA:249,4
DA:250,4
DA:251,4
DA:254,4
DA:255,4
DA:256,4
DA:257,4
DA:258,4
DA:261,4
DA:262,4
DA:263,4
DA:264,4
DA:265,4
DA:268,4
DA:269,4
DA:270,4
DA:271,4
DA:272,4
DA:275,4
DA:276,4
DA:277,4
DA:278,4
DA:279,4
DA:280,4
DA:281,4
DA:282,4
DA:283,4
DA:284,4
DA:285,4
DA:286,4
DA:287,4
DA:288,4
DA:289,4
DA:290,4
DA:291,4
DA:292,4
BRF:0
BRH:0
LF:208
LH:208
end_of_record
SF:C:\Users\pl816\OneDrive\文件\git\my-http-server\src\test\request.rs
FN:137,_RNvNtNtCsJUKjIpJSKG_14my_http_server4test7requests_21test_file_type_checks
FN:124,_RNvNtNtCsJUKjIpJSKG_14my_http_server4test7requests_25test_index_file_detection
FN:109,_RNvNtNtCsJUKjIpJSKG_14my_http_server4test7requests_25test_toc_label_formatting
FN:154,_RNvNtNtCsJUKjIpJSKG_14my_http_server4test7requests_26test_canonicalize_behavior
FN:11,_RNvNtNtCsJUKjIpJSKG_14my_http_server4test7requests_26test_server_error_response
FN:89,_RNvNtNtCsJUKjIpJSKG_14my_http_server4test7requests_26test_strip_prefix_behavior
FN:37,_RNvNtNtCsJUKjIpJSKG_14my_http_server4test7requests_28test_markdown_file_detection
FN:99,_RNvNtNtCsJUKjIpJSKG_14my_http_server4test7requests_28test_strip_prefix_error_case
FN:77,_RNvNtNtCsJUKjIpJSKG_14my_http_server4test7requests_29test_path_traversal_detection
FN:63,_RNvNtNtCsJUKjIpJSKG_14my_http_server4test7requests_29test_percent_encoding_in_path
FN:47,_RNvNtNtCsJUKjIpJSKG_14my_http_server4test7requests_30test_path_extension_edge_cases
FN:164,_RNvNtNtCsJUKjIpJSKG_14my_http_server4test7requests_37test_path_equality_after_canonicalize
FN:40,_RNCNvNtNtCsJUKjIpJSKG_14my_http_server4test7requests_28test_markdown_file_detection0B7_
FN:43,_RNCNvNtNtCsJUKjIpJSKG_14my_http_server4test7requests_28test_markdown_file_detections_0B7_
FN:59,_RNCNvNtNtCsJUKjIpJSKG_14my_http_server4test7requests_30test_path_extension_edge_cases0B7_
FN:137,_RNvNtNtCsgBNAdYuGUwB_14my_http_server4test7requests_21test_file_type_checks
FN:124,_RNvNtNtCsgBNAdYuGUwB_14my_http_server4test7requests_25test_index_file_detection
FN:109,_RNvNtNtCsgBNAdYuGUwB_14my_http_server4test7requests_25test_toc_label_formatting
FN:154,_RNvNtNtCsgBNAdYuGUwB_14my_http_server4test7requests_26test_canonicalize_behavior
FN:11,_RNvNtNtCsgBNAdYuGUwB_14my_http_server4test7requests_26test_server_error_response
FN:89,_RNvNtNtCsgBNAdYuGUwB_14my_http_server4test7requests_26test_strip_prefix_behavior
FN:37,_RNvNtNtCsgBNAdYuGUwB_14my_http_server4test7requests_28test_markdown_file_detection
FN:99,_RNvNtNtCsgBNAdYuGUwB_14my_http_server4test7requests_28test_strip_prefix_error_case
FN:77,_RNvNtNtCsgBNAdYuGUwB_14my_http_server4test7requests_29test_path_traversal_detection
FN:63,_RNvNtNtCsgBNAdYuGUwB_14my_http_server4test7requests_29test_percent_encoding_in_path
FN:47,_RNvNtNtCsgBNAdYuGUwB_14my_http_server4test7requests_30test_path_extension_edge_cases
FN:164,_RNvNtNtCsgBNAdYuGUwB_14my_http_server4test7requests_37test_path_equality_after_canonicalize
FN:40,_RNCNvNtNtCsgBNAdYuGUwB_14my_http_server4test7requests_28test_markdown_file_detection0B7_
FN:43,_RNCNvNtNtCsgBNAdYuGUwB_14my_http_server4test7requests_28test_markdown_file_detections_0B7_
FN:59,_RNCNvNtNtCsgBNAdYuGUwB_14my_http_server4test7requests_30test_path_extension_edge_cases0B7_
FN:40,_RNCNvNtNtCs9ofXrUXFSdM_14my_http_server4test7requests_28test_markdown_file_detection0B7_
FN:43,_RNCNvNtNtCs9ofXrUXFSdM_14my_http_server4test7requests_28test_markdown_file_detections_0B7_
FN:59,_RNCNvNtNtCs9ofXrUXFSdM_14my_http_server4test7requests_30test_path_extension_edge_cases0B7_
FN:137,_RNvNtNtCs9ofXrUXFSdM_14my_http_server4test7requests_21test_file_type_checks
FN:124,_RNvNtNtCs9ofXrUXFSdM_14my_http_server4test7requests_25test_index_file_detection
FN:109,_RNvNtNtCs9ofXrUXFSdM_14my_http_server4test7requests_25test_toc_label_formatting
FN:154,_RNvNtNtCs9ofXrUXFSdM_14my_http_server4test7requests_26test_canonicalize_behavior
FN:11,_RNvNtNtCs9ofXrUXFSdM_14my_http_server4test7requests_26test_server_error_response
FN:89,_RNvNtNtCs9ofXrUXFSdM_14my_http_server4test7requests_26test_strip_prefix_behavior
FN:37,_RNvNtNtCs9ofXrUXFSdM_14my_http_server4test7requests_28test_markdown_file_detection
FN:99,_RNvNtNtCs9ofXrUXFSdM_14my_http_server4test7requests_28test_strip_prefix_error_case
FN:77,_RNvNtNtCs9ofXrUXFSdM_14my_http_server4test7requests_29test_path_traversal_detection
FN:63,_RNvNtNtCs9ofXrUXFSdM_14my_http_server4test7requests_29test_percent_encoding_in_path
FN:47,_RNvNtNtCs9ofXrUXFSdM_14my_http_server4test7requests_30test_path_extension_edge_cases
FN:164,_RNvNtNtCs9ofXrUXFSdM_14my_http_server4test7requests_37test_path_equality_after_canonicalize
FN:137,_RNvNtNtCslE1WvBQdpRb_14my_http_server4test7requests_21test_file_type_checks
FN:124,_RNvNtNtCslE1WvBQdpRb_14my_http_server4test7requests_25test_index_file_detection
FN:109,_RNvNtNtCslE1WvBQdpRb_14my_http_server4test7requests_25test_toc_label_formatting
FN:154,_RNvNtNtCslE1WvBQdpRb_14my_http_server4test7requests_26test_canonicalize_behavior
FN:11,_RNvNtNtCslE1WvBQdpRb_14my_http_server4test7requests_26test_server_error_response
FN:89,_RNvNtNtCslE1WvBQdpRb_14my_http_server4test7requests_26test_strip_prefix_behavior
FN:37,_RNvNtNtCslE1WvBQdpRb_14my_http_server4test7requests_28test_markdown_file_detection
FN:99,_RNvNtNtCslE1WvBQdpRb_14my_http_server4test7requests_28test_strip_prefix_error_case
FN:77,_RNvNtNtCslE1WvBQdpRb_14my_http_server4test7requests_29test_path_traversal_detection
FN:63,_RNvNtNtCslE1WvBQdpRb_14my_http_server4test7requests_29test_percent_encoding_in_path
FN:47,_RNvNtNtCslE1WvBQdpRb_14my_http_server4test7requests_30test_path_extension_edge_cases
FN:164,_RNvNtNtCslE1WvBQdpRb_14my_http_server4test7requests_37test_path_equality_after_canonicalize
FN:40,_RNCNvNtNtCslE1WvBQdpRb_14my_http_server4test7requests_28test_markdown_file_detection0B7_
FN:43,_RNCNvNtNtCslE1WvBQdpRb_14my_http_server4test7requests_28test_markdown_file_detections_0B7_
FN:59,_RNCNvNtNtCslE1WvBQdpRb_14my_http_server4test7requests_30test_path_extension_edge_cases0B7_
FNDA:1,_RNvNtNtCsJUKjIpJSKG_14my_http_server4test7requests_21test_file_type_checks
FNDA:1,_RNvNtNtCsJUKjIpJSKG_14my_http_server4test7requests_25test_index_file_detection
FNDA:1,_RNvNtNtCsJUKjIpJSKG_14my_http_server4test7requests_25test_toc_label_formatting
FNDA:1,_RNvNtNtCsJUKjIpJSKG_14my_http_server4test7requests_26test_canonicalize_behavior
FNDA:1,_RNvNtNtCsJUKjIpJSKG_14my_http_server4test7requests_26test_server_error_response
FNDA:1,_RNvNtNtCsJUKjIpJSKG_14my_http_server4test7requests_26test_strip_prefix_behavior
FNDA:1,_RNvNtNtCsJUKjIpJSKG_14my_http_server4test7requests_28test_markdown_file_detection
FNDA:1,_RNvNtNtCsJUKjIpJSKG_14my_http_server4test7requests_28test_strip_prefix_error_case
FNDA:1,_RNvNtNtCsJUKjIpJSKG_14my_http_server4test7requests_29test_path_traversal_detection
FNDA:1,_RNvNtNtCsJUKjIpJSKG_14my_http_server4test7requests_29test_percent_encoding_in_path
FNDA:1,_RNvNtNtCsJUKjIpJSKG_14my_http_server4test7requests_30test_path_extension_edge_cases
FNDA:1,_RNvNtNtCsJUKjIpJSKG_14my_http_server4test7requests_37test_path_equality_after_canonicalize
FNDA:1,_RNCNvNtNtCsJUKjIpJSKG_14my_http_server4test7requests_28test_markdown_file_detection0B7_
FNDA:1,_RNCNvNtNtCsJUKjIpJSKG_14my_http_server4test7requests_28test_markdown_file_detections_0B7_
FNDA:1,_RNCNvNtNtCsJUKjIpJSKG_14my_http_server4test7requests_30test_path_extension_edge_cases0B7_
FNDA:1,_RNvNtNtCsgBNAdYuGUwB_14my_http_server4test7requests_21test_file_type_checks
FNDA:1,_RNvNtNtCsgBNAdYuGUwB_14my_http_server4test7requests_25test_index_file_detection
FNDA:1,_RNvNtNtCsgBNAdYuGUwB_14my_http_server4test7requests_25test_toc_label_formatting
FNDA:1,_RNvNtNtCsgBNAdYuGUwB_14my_http_server4test7requests_26test_canonicalize_behavior
FNDA:1,_RNvNtNtCsgBNAdYuGUwB_14my_http_server4test7requests_26test_server_error_response
FNDA:1,_RNvNtNtCsgBNAdYuGUwB_14my_http_server4test7requests_26test_strip_prefix_behavior
FNDA:1,_RNvNtNtCsgBNAdYuGUwB_14my_http_server4test7requests_28test_markdown_file_detection
FNDA:1,_RNvNtNtCsgBNAdYuGUwB_14my_http_server4test7requests_28test_strip_prefix_error_case
FNDA:1,_RNvNtNtCsgBNAdYuGUwB_14my_http_server4test7requests_29test_path_traversal_detection
FNDA:1,_RNvNtNtCsgBNAdYuGUwB_14my_http_server4test7requests_29test_percent_encoding_in_path
FNDA:1,_RNvNtNtCsgBNAdYuGUwB_14my_http_server4test7requests_30test_path_extension_edge_cases
FNDA:1,_RNvNtNtCsgBNAdYuGUwB_14my_http_server4test7requests_37test_path_equality_after_canonicalize
FNDA:1,_RNCNvNtNtCsgBNAdYuGUwB_14my_http_server4test7requests_28test_markdown_file_detection0B7_
FNDA:1,_RNCNvNtNtCsgBNAdYuGUwB_14my_http_server4test7requests_28test_markdown_file_detections_0B7_
FNDA:1,_RNCNvNtNtCsgBNAdYuGUwB_14my_http_server4test7requests_30test_path_extension_edge_cases0B7_
FNDA:1,_RNCNvNtNtCs9ofXrUXFSdM_14my_http_server4test7requests_28test_markdown_file_detection0B7_
FNDA:1,_RNCNvNtNtCs9ofXrUXFSdM_14my_http_server4test7requests_28test_markdown_file_detections_0B7_
FNDA:1,_RNCNvNtNtCs9ofXrUXFSdM_14my_http_server4test7requests_30test_path_extension_edge_cases0B7_
FNDA:1,_RNvNtNtCs9ofXrUXFSdM_14my_http_server4test7requests_21test_file_type_checks
FNDA:1,_RNvNtNtCs9ofXrUXFSdM_14my_http_server4test7requests_25test_index_file_detection
FNDA:1,_RNvNtNtCs9ofXrUXFSdM_14my_http_server4test7requests_25test_toc_label_formatting
FNDA:1,_RNvNtNtCs9ofXrUXFSdM_14my_http_server4test7requests_26test_canonicalize_behavior
FNDA:1,_RNvNtNtCs9ofXrUXFSdM_14my_http_server4test7requests_26test_server_error_response
FNDA:1,_RNvNtNtCs9ofXrUXFSdM_14my_http_server4test7requests_26test_strip_prefix_behavior
FNDA:1,_RNvNtNtCs9ofXrUXFSdM_14my_http_server4test7requests_28test_markdown_file_detection
FNDA:1,_RNvNtNtCs9ofXrUXFSdM_14my_http_server4test7requests_28test_strip_prefix_error_case
FNDA:1,_RNvNtNtCs9ofXrUXFSdM_14my_http_server4test7requests_29test_path_traversal_detection
FNDA:1,_RNvNtNtCs9ofXrUXFSdM_14my_http_server4test7requests_29test_percent_encoding_in_path
FNDA:1,_RNvNtNtCs9ofXrUXFSdM_14my_http_server4test7requests_30test_path_extension_edge_cases
FNDA:1,_RNvNtNtCs9ofXrUXFSdM_14my_http_server4test7requests_37test_path_equality_after_canonicalize
FNDA:1,_RNvNtNtCslE1WvBQdpRb_14my_http_server4test7requests_21test_file_type_checks
FNDA:1,_RNvNtNtCslE1WvBQdpRb_14my_http_server4test7requests_25test_index_file_detection
FNDA:1,_RNvNtNtCslE1WvBQdpRb_14my_http_server4test7requests_25test_toc_label_formatting
FNDA:1,_RNvNtNtCslE1WvBQdpRb_14my_http_server4test7requests_26test_canonicalize_behavior
FNDA:1,_RNvNtNtCslE1WvBQdpRb_14my_http_server4test7requests_26test_server_error_response
FNDA:1,_RNvNtNtCslE1WvBQdpRb_14my_http_server4test7requests_26test_strip_prefix_behavior
FNDA:1,_RNvNtNtCslE1WvBQdpRb_14my_http_server4test7requests_28test_markdown_file_detection
FNDA:1,_RNvNtNtCslE1WvBQdpRb_14my_http_server4test7requests_28test_strip_prefix_error_case
FNDA:1,_RNvNtNtCslE1WvBQdpRb_14my_http_server4test7requests_29test_path_traversal_detection
FNDA:1,_RNvNtNtCslE1WvBQdpRb_14my_http_server4test7requests_29test_percent_encoding_in_path
FNDA:1,_RNvNtNtCslE1WvBQdpRb_14my_http_server4test7requests_30test_path_extension_edge_cases
FNDA:1,_RNvNtNtCslE1WvBQdpRb_14my_http_server4test7requests_37test_path_equality_after_canonicalize
FNDA:1,_RNCNvNtNtCslE1WvBQdpRb_14my_http_server4test7requests_28test_markdown_file_detection0B7_
FNDA:1,_RNCNvNtNtCslE1WvBQdpRb_14my_http_server4test7requests_28test_markdown_file_detections_0B7_
FNDA:1,_RNCNvNtNtCslE1WvBQdpRb_14my_http_server4test7requests_30test_path_extension_edge_cases0B7_
FNF:15
FNH:15
DA:11,4
DA:12,4
DA:13,4
DA:14,4
DA:17,4
DA:37,4
DA:39,4
DA:40,4
DA:42,4
DA:43,4
DA:44,4
DA:47,4
DA:50,4
DA:51,4
DA:54,4
DA:55,4
DA:58,4
DA:59,4
DA:60,4
DA:63,4
DA:66,4
DA:67,4
DA:68,4
DA:70,4
DA:71,4
DA:72,4
DA:73,4
DA:74,4
DA:77,4
DA:80,4
DA:81,4
DA:82,4
DA:84,4
DA:85,4
DA:86,4
DA:89,4
DA:91,4
DA:92,4
DA:94,4
DA:95,4
DA:96,4
DA:99,4
DA:101,4
DA:102,4
DA:104,4
DA:105,4
DA:109,4
DA:110,4
DA:111,4
DA:112,4
DA:114,4
DA:115,4
DA:116,4
DA:118,0
DA:120,4
DA:121,4
DA:124,4
DA:125,4
DA:126,4
DA:129,4
DA:132,4
DA:133,4
DA:134,4
DA:137,4
DA:138,4
DA:141,4
DA:142,4
DA:143,4
DA:144,4
DA:147,4
DA:148,4
DA:149,4
DA:150,4
DA:151,4
DA:154,4
DA:155,4
DA:156,4
DA:157,4
DA:159,4
DA:160,4
DA:161,4
DA:164,4
DA:165,4
DA:166,4
DA:167,4
DA:169,4
DA:170,4
DA:171,4
DA:172,4
BRF:0
BRH:0
LF:92
LH:91
end_of_record
SF:C:\Users\pl816\OneDrive\文件\git\my-http-server\src\test\security.rs
FN:77,_RNvNtNtCsJUKjIpJSKG_14my_http_server4test8securitys_26test_ct_eq_str_opt_unicode
FN:66,_RNvNtNtCsJUKjIpJSKG_14my_http_server4test8securitys_27test_ct_eq_str_opt_one_none
FN:61,_RNvNtNtCsJUKjIpJSKG_14my_http_server4test8securitys_28test_ct_eq_str_opt_both_none
FN:36,_RNvNtNtCsJUKjIpJSKG_14my_http_server4test8securitys_31test_constant_time_eq_one_empty
FN:103,_RNvNtNtCsJUKjIpJSKG_14my_http_server4test8securitys_32test_constant_time_eq_zero_bytes
FN:72,_RNvNtNtCsJUKjIpJSKG_14my_http_server4test8securitys_32test_ct_eq_str_opt_empty_strings
FN:51,_RNvNtNtCsJUKjIpJSKG_14my_http_server4test8securitys_34test_ct_eq_str_opt_both_some_equal
FN:29,_RNvNtNtCsJUKjIpJSKG_14my_http_server4test8securitys_35test_constant_time_eq_empty_strings
FN:8,_RNvNtNtCsJUKjIpJSKG_14my_http_server4test8securitys_35test_constant_time_eq_equal_strings
FN:114,_RNvNtNtCsJUKjIpJSKG_14my_http_server4test8securitys_36test_constant_time_eq_all_zero_bytes
FN:43,_RNvNtNtCsJUKjIpJSKG_14my_http_server4test8securitys_36test_constant_time_eq_similar_prefix
FN:84,_RNvNtNtCsJUKjIpJSKG_14my_http_server4test8securitys_37test_constant_time_eq_timing_property
FN:124,_RNvNtNtCsJUKjIpJSKG_14my_http_server4test8securitys_37test_ct_eq_str_opt_special_characters
FN:56,_RNvNtNtCsJUKjIpJSKG_14my_http_server4test8securitys_38test_ct_eq_str_opt_both_some_different
FN:22,_RNvNtNtCsJUKjIpJSKG_14my_http_server4test8securitys_39test_constant_time_eq_different_lengths
FN:15,_RNvNtNtCsJUKjIpJSKG_14my_http_server4test8securitys_39test_constant_time_eq_different_strings
FN:77,_RNvNtNtCsgBNAdYuGUwB_14my_http_server4test8securitys_26test_ct_eq_str_opt_unicode
FN:66,_RNvNtNtCsgBNAdYuGUwB_14my_http_server4test8securitys_27test_ct_eq_str_opt_one_none
FN:61,_RNvNtNtCsgBNAdYuGUwB_14my_http_server4test8securitys_28test_ct_eq_str_opt_both_none
FN:36,_RNvNtNtCsgBNAdYuGUwB_14my_http_server4test8securitys_31test_constant_time_eq_one_empty
FN:103,_RNvNtNtCsgBNAdYuGUwB_14my_http_server4test8securitys_32test_constant_time_eq_zero_bytes
FN:72,_RNvNtNtCsgBNAdYuGUwB_14my_http_server4test8securitys_32test_ct_eq_str_opt_empty_strings
FN:51,_RNvNtNtCsgBNAdYuGUwB_14my_http_server4test8securitys_34test_ct_eq_str_opt_both_some_equal
FN:29,_RNvNtNtCsgBNAdYuGUwB_14my_http_server4test8securitys_35test_constant_time_eq_empty_strings
FN:8,_RNvNtNtCsgBNAdYuGUwB_14my_http_server4test8securitys_35test_constant_time_eq_equal_strings
FN:114,_RNvNtNtCsgBNAdYuGUwB_14my_http_server4test8securitys_36test_constant_time_eq_all_zero_bytes
FN:43,_RNvNtNtCsgBNAdYuGUwB_14my_http_server4test8securitys_36test_constant_time_eq_similar_prefix
FN:84,_RNvNtNtCsgBNAdYuGUwB_14my_http_server4test8securitys_37test_constant_time_eq_timing_property
FN:124,_RNvNtNtCsgBNAdYuGUwB_14my_http_server4test8securitys_37test_ct_eq_str_opt_special_characters
FN:56,_RNvNtNtCsgBNAdYuGUwB_14my_http_server4test8securitys_38test_ct_eq_str_opt_both_some_different
FN:22,_RNvNtNtCsgBNAdYuGUwB_14my_http_server4test8securitys_39test_constant_time_eq_different_lengths
FN:15,_RNvNtNtCsgBNAdYuGUwB_14my_http_server4test8securitys_39test_constant_time_eq_different_strings
FN:77,_RNvNtNtCs9ofXrUXFSdM_14my_http_server4test8securitys_26test_ct_eq_str_opt_unicode
FN:66,_RNvNtNtCs9ofXrUXFSdM_14my_http_server4test8securitys_27test_ct_eq_str_opt_one_none
FN:61,_RNvNtNtCs9ofXrUXFSdM_14my_http_server4test8securitys_28test_ct_eq_str_opt_both_none
FN:36,_RNvNtNtCs9ofXrUXFSdM_14my_http_server4test8securitys_31test_constant_time_eq_one_empty
FN:103,_RNvNtNtCs9ofXrUXFSdM_14my_http_server4test8securitys_32test_constant_time_eq_zero_bytes
FN:72,_RNvNtNtCs9ofXrUXFSdM_14my_http_server4test8securitys_32test_ct_eq_str_opt_empty_strings
FN:51,_RNvNtNtCs9ofXrUXFSdM_14my_http_server4test8securitys_34test_ct_eq_str_opt_both_some_equal
FN:29,_RNvNtNtCs9ofXrUXFSdM_14my_http_server4test8securitys_35test_constant_time_eq_empty_strings
FN:8,_RNvNtNtCs9ofXrUXFSdM_14my_http_server4test8securitys_35test_constant_time_eq_equal_strings
FN:114,_RNvNtNtCs9ofXrUXFSdM_14my_http_server4test8securitys_36test_constant_time_eq_all_zero_bytes
FN:43,_RNvNtNtCs9ofXrUXFSdM_14my_http_server4test8securitys_36test_constant_time_eq_similar_prefix
FN:84,_RNvNtNtCs9ofXrUXFSdM_14my_http_server4test8securitys_37test_constant_time_eq_timing_property
FN:124,_RNvNtNtCs9ofXrUXFSdM_14my_http_server4test8securitys_37test_ct_eq_str_opt_special_characters
FN:56,_RNvNtNtCs9ofXrUXFSdM_14my_http_server4test8securitys_38test_ct_eq_str_opt_both_some_different
FN:22,_RNvNtNtCs9ofXrUXFSdM_14my_http_server4test8securitys_39test_constant_time_eq_different_lengths
FN:15,_RNvNtNtCs9ofXrUXFSdM_14my_http_server4test8securitys_39test_constant_time_eq_different_strings
FN:77,_RNvNtNtCslE1WvBQdpRb_14my_http_server4test8securitys_26test_ct_eq_str_opt_unicode
FN:66,_RNvNtNtCslE1WvBQdpRb_14my_http_server4test8securitys_27test_ct_eq_str_opt_one_none
FN:61,_RNvNtNtCslE1WvBQdpRb_14my_http_server4test8securitys_28test_ct_eq_str_opt_both_none
FN:36,_RNvNtNtCslE1WvBQdpRb_14my_http_server4test8securitys_31test_constant_time_eq_one_empty
FN:103,_RNvNtNtCslE1WvBQdpRb_14my_http_server4test8securitys_32test_constant_time_eq_zero_bytes
FN:72,_RNvNtNtCslE1WvBQdpRb_14my_http_server4test8securitys_32test_ct_eq_str_opt_empty_strings
FN:51,_RNvNtNtCslE1WvBQdpRb_14my_http_server4test8securitys_34test_ct_eq_str_opt_both_some_equal
FN:29,_RNvNtNtCslE1WvBQdpRb_14my_http_server4test8securitys_35test_constant_time_eq_empty_strings
FN:8,_RNvNtNtCslE1WvBQdpRb_14my_http_server4test8securitys_35test_constant_time_eq_equal_strings
FN:114,_RNvNtNtCslE1WvBQdpRb_14my_http_server4test8securitys_36test_constant_time_eq_all_zero_bytes
FN:43,_RNvNtNtCslE1WvBQdpRb_14my_http_server4test8securitys_36test_constant_time_eq_similar_prefix
FN:84,_RNvNtNtCslE1WvBQdpRb_14my_http_server4test8securitys_37test_constant_time_eq_timing_property
FN:124,_RNvNtNtCslE1WvBQdpRb_14my_http_server4test8securitys_37test_ct_eq_str_opt_special_characters
FN:56,_RNvNtNtCslE1WvBQdpRb_14my_http_server4test8securitys_38test_ct_eq_str_opt_both_some_different
FN:22,_RNvNtNtCslE1WvBQdpRb_14my_http_server4test8securitys_39test_constant_time_eq_different_lengths
FN:15,_RNvNtNtCslE1WvBQdpRb_14my_http_server4test8securitys_39test_constant_time_eq_different_strings
FNDA:1,_RNvNtNtCsJUKjIpJSKG_14my_http_server4test8securitys_26test_ct_eq_str_opt_unicode
FNDA:1,_RNvNtNtCsJUKjIpJSKG_14my_http_server4test8securitys_27test_ct_eq_str_opt_one_none
FNDA:1,_RNvNtNtCsJUKjIpJSKG_14my_http_server4test8securitys_28test_ct_eq_str_opt_both_none
FNDA:1,_RNvNtNtCsJUKjIpJSKG_14my_http_server4test8securitys_31test_constant_time_eq_one_empty
FNDA:1,_RNvNtNtCsJUKjIpJSKG_14my_http_server4test8securitys_32test_constant_time_eq_zero_bytes
FNDA:1,_RNvNtNtCsJUKjIpJSKG_14my_http_server4test8securitys_32test_ct_eq_str_opt_empty_strings
FNDA:1,_RNvNtNtCsJUKjIpJSKG_14my_http_server4test8securitys_34test_ct_eq_str_opt_both_some_equal
FNDA:1,_RNvNtNtCsJUKjIpJSKG_14my_http_server4test8securitys_35test_constant_time_eq_empty_strings
FNDA:1,_RNvNtNtCsJUKjIpJSKG_14my_http_server4test8securitys_35test_constant_time_eq_equal_strings
FNDA:1,_RNvNtNtCsJUKjIpJSKG_14my_http_server4test8securitys_36test_constant_time_eq_all_zero_bytes
FNDA:1,_RNvNtNtCsJUKjIpJSKG_14my_http_server4test8securitys_36test_constant_time_eq_similar_prefix
FNDA:1,_RNvNtNtCsJUKjIpJSKG_14my_http_server4test8securitys_37test_constant_time_eq_timing_property
FNDA:1,_RNvNtNtCsJUKjIpJSKG_14my_http_server4test8securitys_37test_ct_eq_str_opt_special_characters
FNDA:1,_RNvNtNtCsJUKjIpJSKG_14my_http_server4test8securitys_38test_ct_eq_str_opt_both_some_different
FNDA:1,_RNvNtNtCsJUKjIpJSKG_14my_http_server4test8securitys_39test_constant_time_eq_different_lengths
FNDA:1,_RNvNtNtCsJUKjIpJSKG_14my_http_server4test8securitys_39test_constant_time_eq_different_strings
FNDA:1,_RNvNtNtCsgBNAdYuGUwB_14my_http_server4test8securitys_26test_ct_eq_str_opt_unicode
FNDA:1,_RNvNtNtCsgBNAdYuGUwB_14my_http_server4test8securitys_27test_ct_eq_str_opt_one_none
FNDA:1,_RNvNtNtCsgBNAdYuGUwB_14my_http_server4test8securitys_28test_ct_eq_str_opt_both_none
FNDA:1,_RNvNtNtCsgBNAdYuGUwB_14my_http_server4test8securitys_31test_constant_time_eq_one_empty
FNDA:1,_RNvNtNtCsgBNAdYuGUwB_14my_http_server4test8securitys_32test_constant_time_eq_zero_bytes
FNDA:1,_RNvNtNtCsgBNAdYuGUwB_14my_http_server4test8securitys_32test_ct_eq_str_opt_empty_strings
FNDA:1,_RNvNtNtCsgBNAdYuGUwB_14my_http_server4test8securitys_34test_ct_eq_str_opt_both_some_equal
FNDA:1,_RNvNtNtCsgBNAdYuGUwB_14my_http_server4test8securitys_35test_constant_time_eq_empty_strings
FNDA:1,_RNvNtNtCsgBNAdYuGUwB_14my_http_server4test8securitys_35test_constant_time_eq_equal_strings
FNDA:1,_RNvNtNtCsgBNAdYuGUwB_14my_http_server4test8securitys_36test_constant_time_eq_all_zero_bytes
FNDA:1,_RNvNtNtCsgBNAdYuGUwB_14my_http_server4test8securitys_36test_constant_time_eq_similar_prefix
FNDA:1,_RNvNtNtCsgBNAdYuGUwB_14my_http_server4test8securitys_37test_constant_time_eq_timing_property
FNDA:1,_RNvNtNtCsgBNAdYuGUwB_14my_http_server4test8securitys_37test_ct_eq_str_opt_special_characters
FNDA:1,_RNvNtNtCsgBNAdYuGUwB_14my_http_server4test8securitys_38test_ct_eq_str_opt_both_some_different
FNDA:1,_RNvNtNtCsgBNAdYuGUwB_14my_http_server4test8securitys_39test_constant_time_eq_different_lengths
FNDA:1,_RNvNtNtCsgBNAdYuGUwB_14my_http_server4test8securitys_39test_constant_time_eq_different_strings
FNDA:1,_RNvNtNtCs9ofXrUXFSdM_14my_http_server4test8securitys_26test_ct_eq_str_opt_unicode
FNDA:1,_RNvNtNtCs9ofXrUXFSdM_14my_http_server4test8securitys_27test_ct_eq_str_opt_one_none
FNDA:1,_RNvNtNtCs9ofXrUXFSdM_14my_http_server4test8securitys_28test_ct_eq_str_opt_both_none
FNDA:1,_RNvNtNtCs9ofXrUXFSdM_14my_http_server4test8securitys_31test_constant_time_eq_one_empty
FNDA:1,_RNvNtNtCs9ofXrUXFSdM_14my_http_server4test8securitys_32test_constant_time_eq_zero_bytes
FNDA:1,_RNvNtNtCs9ofXrUXFSdM_14my_http_server4test8securitys_32test_ct_eq_str_opt_empty_strings
FNDA:1,_RNvNtNtCs9ofXrUXFSdM_14my_http_server4test8securitys_34test_ct_eq_str_opt_both_some_equal
FNDA:1,_RNvNtNtCs9ofXrUXFSdM_14my_http_server4test8securitys_35test_constant_time_eq_empty_strings
FNDA:1,_RNvNtNtCs9ofXrUXFSdM_14my_http_server4test8securitys_35test_constant_time_eq_equal_strings
FNDA:1,_RNvNtNtCs9ofXrUXFSdM_14my_http_server4test8securitys_36test_constant_time_eq_all_zero_bytes
FNDA:1,_RNvNtNtCs9ofXrUXFSdM_14my_http_server4test8securitys_36test_constant_time_eq_similar_prefix
FNDA:1,_RNvNtNtCs9ofXrUXFSdM_14my_http_server4test8securitys_37test_constant_time_eq_timing_property
FNDA:1,_RNvNtNtCs9ofXrUXFSdM_14my_http_server4test8securitys_37test_ct_eq_str_opt_special_characters
FNDA:1,_RNvNtNtCs9ofXrUXFSdM_14my_http_server4test8securitys_38test_ct_eq_str_opt_both_some_different
FNDA:1,_RNvNtNtCs9ofXrUXFSdM_14my_http_server4test8securitys_39test_constant_time_eq_different_lengths
FNDA:1,_RNvNtNtCs9ofXrUXFSdM_14my_http_server4test8securitys_39test_constant_time_eq_different_strings
FNDA:1,_RNvNtNtCslE1WvBQdpRb_14my_http_server4test8securitys_26test_ct_eq_str_opt_unicode
FNDA:1,_RNvNtNtCslE1WvBQdpRb_14my_http_server4test8securitys_27test_ct_eq_str_opt_one_none
FNDA:1,_RNvNtNtCslE1WvBQdpRb_14my_http_server4test8securitys_28test_ct_eq_str_opt_both_none
FNDA:1,_RNvNtNtCslE1WvBQdpRb_14my_http_server4test8securitys_31test_constant_time_eq_one_empty
FNDA:1,_RNvNtNtCslE1WvBQdpRb_14my_http_server4test8securitys_32test_constant_time_eq_zero_bytes
FNDA:1,_RNvNtNtCslE1WvBQdpRb_14my_http_server4test8securitys_32test_ct_eq_str_opt_empty_strings
FNDA:1,_RNvNtNtCslE1WvBQdpRb_14my_http_server4test8securitys_34test_ct_eq_str_opt_both_some_equal
FNDA:1,_RNvNtNtCslE1WvBQdpRb_14my_http_server4test8securitys_35test_constant_time_eq_empty_strings
FNDA:1,_RNvNtNtCslE1WvBQdpRb_14my_http_server4test8securitys_35test_constant_time_eq_equal_strings
FNDA:1,_RNvNtNtCslE1WvBQdpRb_14my_http_server4test8securitys_36test_constant_time_eq_all_zero_bytes
FNDA:1,_RNvNtNtCslE1WvBQdpRb_14my_http_server4test8securitys_36test_constant_time_eq_similar_prefix
FNDA:1,_RNvNtNtCslE1WvBQdpRb_14my_http_server4test8securitys_37test_constant_time_eq_timing_property
FNDA:1,_RNvNtNtCslE1WvBQdpRb_14my_http_server4test8securitys_37test_ct_eq_str_opt_special_characters
FNDA:1,_RNvNtNtCslE1WvBQdpRb_14my_http_server4test8securitys_38test_ct_eq_str_opt_both_some_different
FNDA:1,_RNvNtNtCslE1WvBQdpRb_14my_http_server4test8securitys_39test_constant_time_eq_different_lengths
FNDA:1,_RNvNtNtCslE1WvBQdpRb_14my_http_server4test8securitys_39test_constant_time_eq_different_strings
FNF:16
FNH:16
DA:8,4
DA:9,4
DA:10,4
DA:11,4
DA:12,4
DA:15,4
DA:16,4
DA:17,4
DA:18,4
DA:19,4
DA:22,4
DA:23,4
DA:24,4
DA:25,4
DA:26,4
DA:29,4
DA:30,4
DA:31,4
DA:32,4
DA:33,4
DA:36,4
DA:37,4
DA:38,4
DA:39,4
DA:40,4
DA:43,4
DA:45,4
DA:46,4
DA:47,4
DA:48,4
DA:51,4
DA:52,4
DA:53,4
DA:56,4
DA:57,4
DA:58,4
DA:61,4
DA:62,4
DA:63,4
DA:66,4
DA:67,4
DA:68,4
DA:69,4
DA:72,4
DA:73,4
DA:74,4
DA:77,4
DA:78,4
DA:79,4
DA:80,4
DA:84,4
DA:87,4
DA:90,4
DA:91,4
DA:94,4
DA:95,4
DA:98,4
DA:99,4
DA:100,4
DA:103,4
DA:105,4
DA:106,4
DA:107,4
DA:109,4
DA:110,4
DA:111,4
DA:114,4
DA:115,4
DA:116,4
DA:117,4
DA:119,4
DA:120,4
DA:121,4
DA:124,4
DA:125,4
DA:126,4
DA:127,4
BRF:0
BRH:0
LF:77
LH:77
end_of_record
SF:C:\Users\pl816\OneDrive\文件\git\my-http-server\src\test\templating.rs
FN:247,_RNvNtNtCsJUKjIpJSKG_14my_http_server4test10templatings_20test_env_var_missing
FN:276,_RNvNtNtCsJUKjIpJSKG_14my_http_server4test10templatings_28test_context_value_overwrite
FN:262,_RNvNtNtCsJUKjIpJSKG_14my_http_server4test10templatings_28test_multiple_context_values
FN:48,_RNvNtNtCsJUKjIpJSKG_14my_http_server4test10templatings_29test_set_context_value_string
FN:30,_RNvNtNtCsJUKjIpJSKG_14my_http_server4test10templatings_30test_set_context_value_integer
FN:181,_RNvNtNtCsJUKjIpJSKG_14my_http_server4test10templatings_30test_set_context_value_unicode
FN:101,_RNvNtNtCsJUKjIpJSKG_14my_http_server4test10templatings_31test_set_context_value_env_bool
FN:12,_RNvNtNtCsJUKjIpJSKG_14my_http_server4test10templatings_32test_set_context_value_bool_true
FN:21,_RNvNtNtCsJUKjIpJSKG_14my_http_server4test10templatings_33test_set_context_value_bool_false
FN:144,_RNvNtNtCsJUKjIpJSKG_14my_http_server4test10templatings_33test_set_context_value_empty_name
FN:118,_RNvNtNtCsJUKjIpJSKG_14my_http_server4test10templatings_33test_set_context_value_env_number
FN:220,_RNvNtNtCsJUKjIpJSKG_14my_http_server4test10templatings_34test_context_value_inference_order
FN:172,_RNvNtNtCsJUKjIpJSKG_14my_http_server4test10templatings_34test_set_context_value_empty_value
FN:84,_RNvNtNtCsJUKjIpJSKG_14my_http_server4test10templatings_35test_set_context_value_env_variable
FN:190,_RNvNtNtCsJUKjIpJSKG_14my_http_server4test10templatings_36test_set_context_value_special_chars
FN:162,_RNvNtNtCsJUKjIpJSKG_14my_http_server4test10templatings_38test_set_context_value_multiple_colons
FN:66,_RNvNtNtCsJUKjIpJSKG_14my_http_server4test10templatings_38test_set_context_value_type_precedence
FN:39,_RNvNtNtCsJUKjIpJSKG_14my_http_server4test10templatings_39test_set_context_value_negative_integer
FN:199,_RNvNtNtCsJUKjIpJSKG_14my_http_server4test10templatings_40test_get_context_includes_server_version
FN:135,_RNvNtNtCsJUKjIpJSKG_14my_http_server4test10templatings_41test_set_context_value_malformed_no_colon
FN:57,_RNvNtNtCsJUKjIpJSKG_14my_http_server4test10templatings_41test_set_context_value_string_with_spaces
FN:153,_RNvNtNtCsJUKjIpJSKG_14my_http_server4test10templatings_42test_set_context_value_whitespace_handling
FN:247,_RNvNtNtCsgBNAdYuGUwB_14my_http_server4test10templatings_20test_env_var_missing
FN:276,_RNvNtNtCsgBNAdYuGUwB_14my_http_server4test10templatings_28test_context_value_overwrite
FN:262,_RNvNtNtCsgBNAdYuGUwB_14my_http_server4test10templatings_28test_multiple_context_values
FN:48,_RNvNtNtCsgBNAdYuGUwB_14my_http_server4test10templatings_29test_set_context_value_string
FN:30,_RNvNtNtCsgBNAdYuGUwB_14my_http_server4test10templatings_30test_set_context_value_integer
FN:181,_RNvNtNtCsgBNAdYuGUwB_14my_http_server4test10templatings_30test_set_context_value_unicode
FN:101,_RNvNtNtCsgBNAdYuGUwB_14my_http_server4test10templatings_31test_set_context_value_env_bool
FN:12,_RNvNtNtCsgBNAdYuGUwB_14my_http_server4test10templatings_32test_set_context_value_bool_true
FN:21,_RNvNtNtCsgBNAdYuGUwB_14my_http_server4test10templatings_33test_set_context_value_bool_false
FN:144,_RNvNtNtCsgBNAdYuGUwB_14my_http_server4test10templatings_33test_set_context_value_empty_name
FN:118,_RNvNtNtCsgBNAdYuGUwB_14my_http_server4test10templatings_33test_set_context_value_env_number
FN:220,_RNvNtNtCsgBNAdYuGUwB_14my_http_server4test10templatings_34test_context_value_inference_order
FN:172,_RNvNtNtCsgBNAdYuGUwB_14my_http_server4test10templatings_34test_set_context_value_empty_value
FN:84,_RNvNtNtCsgBNAdYuGUwB_14my_http_server4test10templatings_35test_set_context_value_env_variable
FN:190,_RNvNtNtCsgBNAdYuGUwB_14my_http_server4test10templatings_36test_set_context_value_special_chars
FN:162,_RNvNtNtCsgBNAdYuGUwB_14my_http_server4test10templatings_38test_set_context_value_multiple_colons
FN:66,_RNvNtNtCsgBNAdYuGUwB_14my_http_server4test10templatings_38test_set_context_value_type_precedence
FN:39,_RNvNtNtCsgBNAdYuGUwB_14my_http_server4test10templatings_39test_set_context_value_negative_integer
FN:199,_RNvNtNtCsgBNAdYuGUwB_14my_http_server4test10templatings_40test_get_context_includes_server_version
FN:135,_RNvNtNtCsgBNAdYuGUwB_14my_http_server4test10templatings_41test_set_context_value_malformed_no_colon
FN:57,_RNvNtNtCsgBNAdYuGUwB_14my_http_server4test10templatings_41test_set_context_value_string_with_spaces
FN:153,_RNvNtNtCsgBNAdYuGUwB_14my_http_server4test10templatings_42test_set_context_value_whitespace_handling
FN:247,_RNvNtNtCs9ofXrUXFSdM_14my_http_server4test10templatings_20test_env_var_missing
FN:276,_RNvNtNtCs9ofXrUXFSdM_14my_http_server4test10templatings_28test_context_value_overwrite
FN:262,_RNvNtNtCs9ofXrUXFSdM_14my_http_server4test10templatings_28test_multiple_context_values
FN:48,_RNvNtNtCs9ofXrUXFSdM_14my_http_server4test10templatings_29test_set_context_value_string
FN:30,_RNvNtNtCs9ofXrUXFSdM_14my_http_server4test10templatings_30test_set_context_value_integer
FN:181,_RNvNtNtCs9ofXrUXFSdM_14my_http_server4test10templatings_30test_set_context_value_unicode
FN:101,_RNvNtNtCs9ofXrUXFSdM_14my_http_server4test10templatings_31test_set_context_value_env_bool
FN:12,_RNvNtNtCs9ofXrUXFSdM_14my_http_server4test10templatings_32test_set_context_value_bool_true
FN:21,_RNvNtNtCs9ofXrUXFSdM_14my_http_server4test10templatings_33test_set_context_value_bool_false
FN:144,_RNvNtNtCs9ofXrUXFSdM_14my_http_server4test10templatings_33test_set_context_value_empty_name
FN:118,_RNvNtNtCs9ofXrUXFSdM_14my_http_server4test10templatings_33test_set_context_value_env_number
FN:220,_RNvNtNtCs9ofXrUXFSdM_14my_http_server4test10templatings_34test_context_value_inference_order
FN:172,_RNvNtNtCs9ofXrUXFSdM_14my_http_server4test10templatings_34test_set_context_value_empty_value
FN:84,_RNvNtNtCs9ofXrUXFSdM_14my_http_server4test10templatings_35test_set_context_value_env_variable
FN:190,_RNvNtNtCs9ofXrUXFSdM_14my_http_server4test10templatings_36test_set_context_value_special_chars
FN:162,_RNvNtNtCs9ofXrUXFSdM_14my_http_server4test10templatings_38test_set_context_value_multiple_colons
FN:66,_RNvNtNtCs9ofXrUXFSdM_14my_http_server4test10templatings_38test_set_context_value_type_precedence
FN:39,_RNvNtNtCs9ofXrUXFSdM_14my_http_server4test10templatings_39test_set_context_value_negative_integer
FN:199,_RNvNtNtCs9ofXrUXFSdM_14my_http_server4test10templatings_40test_get_context_includes_server_version
FN:135,_RNvNtNtCs9ofXrUXFSdM_14my_http_server4test10templatings_41test_set_context_value_malformed_no_colon
FN:57,_RNvNtNtCs9ofXrUXFSdM_14my_http_server4test10templatings_41test_set_context_value_string_with_spaces
FN:153,_RNvNtNtCs9ofXrUXFSdM_14my_http_server4test10templatings_42test_set_context_value_whitespace_handling
FN:247,_RNvNtNtCslE1WvBQdpRb_14my_http_server4test10templatings_20test_env_var_missing
FN:276,_RNvNtNtCslE1WvBQdpRb_14my_http_server4test10templatings_28test_context_value_overwrite
FN:262,_RNvNtNtCslE1WvBQdpRb_14my_http_server4test10templatings_28test_multiple_context_values
FN:48,_RNvNtNtCslE1WvBQdpRb_14my_http_server4test10templatings_29test_set_context_value_string
FN:30,_RNvNtNtCslE1WvBQdpRb_14my_http_server4test10templatings_30test_set_context_value_integer
FN:181,_RNvNtNtCslE1WvBQdpRb_14my_http_server4test10templatings_30test_set_context_value_unicode
FN:101,_RNvNtNtCslE1WvBQdpRb_14my_http_server4test10templatings_31test_set_context_value_env_bool
FN:12,_RNvNtNtCslE1WvBQdpRb_14my_http_server4test10templatings_32test_set_context_value_bool_true
FN:21,_RNvNtNtCslE1WvBQdpRb_14my_http_server4test10templatings_33test_set_context_value_bool_false
FN:144,_RNvNtNtCslE1WvBQdpRb_14my_http_server4test10templatings_33test_set_context_value_empty_name
FN:118,_RNvNtNtCslE1WvBQdpRb_14my_http_server4test10templatings_33test_set_context_value_env_number
FN:220,_RNvNtNtCslE1WvBQdpRb_14my_http_server4test10templatings_34test_context_value_inference_order
FN:172,_RNvNtNtCslE1WvBQdpRb_14my_http_server4test10templatings_34test_set_context_value_empty_value
FN:84,_RNvNtNtCslE1WvBQdpRb_14my_http_server4test10templatings_35test_set_context_value_env_variable
FN:190,_RNvNtNtCslE1WvBQdpRb_14my_http_server4test10templatings_36test_set_context_value_special_chars
FN:162,_RNvNtNtCslE1WvBQdpRb_14my_http_server4test10templatings_38test_set_context_value_multiple_colons
FN:66,_RNvNtNtCslE1WvBQdpRb_14my_http_server4test10templatings_38test_set_context_value_type_precedence
FN:39,_RNvNtNtCslE1WvBQdpRb_14my_http_server4test10templatings_39test_set_context_value_negative_integer
FN:199,_RNvNtNtCslE1WvBQdpRb_14my_http_server4test10templatings_40test_get_context_includes_server_version
FN:135,_RNvNtNtCslE1WvBQdpRb_14my_http_server4test10templatings_41test_set_context_value_malformed_no_colon
FN:57,_RNvNtNtCslE1WvBQdpRb_14my_http_server4test10templatings_41test_set_context_value_string_with_spaces
FN:153,_RNvNtNtCslE1WvBQdpRb_14my_http_server4test10templatings_42test_set_context_value_whitespace_handling
FNDA:1,_RNvNtNtCsJUKjIpJSKG_14my_http_server4test10templatings_20test_env_var_missing
FNDA:1,_RNvNtNtCsJUKjIpJSKG_14my_http_server4test10templatings_28test_context_value_overwrite
FNDA:1,_RNvNtNtCsJUKjIpJSKG_14my_http_server4test10templatings_28test_multiple_context_values
FNDA:1,_RNvNtNtCsJUKjIpJSKG_14my_http_server4test10templatings_29test_set_context_value_string
FNDA:1,_RNvNtNtCsJUKjIpJSKG_14my_http_server4test10templatings_30test_set_context_value_integer
FNDA:1,_RNvNtNtCsJUKjIpJSKG_14my_http_server4test10templatings_30test_set_context_value_unicode
FNDA:1,_RNvNtNtCsJUKjIpJSKG_14my_http_server4test10templatings_31test_set_context_value_env_bool
FNDA:1,_RNvNtNtCsJUKjIpJSKG_14my_http_server4test10templatings_32test_set_context_value_bool_true
FNDA:1,_RNvNtNtCsJUKjIpJSKG_14my_http_server4test10templatings_33test_set_context_value_bool_false
FNDA:1,_RNvNtNtCsJUKjIpJSKG_14my_http_server4test10templatings_33test_set_context_value_empty_name
FNDA:1,_RNvNtNtCsJUKjIpJSKG_14my_http_server4test10templatings_33test_set_context_value_env_number
FNDA:1,_RNvNtNtCsJUKjIpJSKG_14my_http_server4test10templatings_34test_context_value_inference_order
FNDA:1,_RNvNtNtCsJUKjIpJSKG_14my_http_server4test10templatings_34test_set_context_value_empty_value
FNDA:1,_RNvNtNtCsJUKjIpJSKG_14my_http_server4test10templatings_35test_set_context_value_env_variable
FNDA:1,_RNvNtNtCsJUKjIpJSKG_14my_http_server4test10templatings_36test_set_context_value_special_chars
FNDA:1,_RNvNtNtCsJUKjIpJSKG_14my_http_server4test10templatings_38test_set_context_value_multiple_colons
FNDA:1,_RNvNtNtCsJUKjIpJSKG_14my_http_server4test10templatings_38test_set_context_value_type_precedence
FNDA:1,_RNvNtNtCsJUKjIpJSKG_14my_http_server4test10templatings_39test_set_context_value_negative_integer
FNDA:1,_RNvNtNtCsJUKjIpJSKG_14my_http_server4test10templatings_40test_get_context_includes_server_version
FNDA:1,_RNvNtNtCsJUKjIpJSKG_14my_http_server4test10templatings_41test_set_context_value_malformed_no_colon
FNDA:1,_RNvNtNtCsJUKjIpJSKG_14my_http_server4test10templatings_41test_set_context_value_string_with_spaces
FNDA:1,_RNvNtNtCsJUKjIpJSKG_14my_http_server4test10templatings_42test_set_context_value_whitespace_handling
FNDA:1,_RNvNtNtCsgBNAdYuGUwB_14my_http_server4test10templatings_20test_env_var_missing
FNDA:1,_RNvNtNtCsgBNAdYuGUwB_14my_http_server4test10templatings_28test_context_value_overwrite
FNDA:1,_RNvNtNtCsgBNAdYuGUwB_14my_http_server4test10templatings_28test_multiple_context_values
FNDA:1,_RNvNtNtCsgBNAdYuGUwB_14my_http_server4test10templatings_29test_set_context_value_string
FNDA:1,_RNvNtNtCsgBNAdYuGUwB_14my_http_server4test10templatings_30test_set_context_value_integer
FNDA:1,_RNvNtNtCsgBNAdYuGUwB_14my_http_server4test10templatings_30test_set_context_value_unicode
FNDA:1,_RNvNtNtCsgBNAdYuGUwB_14my_http_server4test10templatings_31test_set_context_value_env_bool
FNDA:1,_RNvNtNtCsgBNAdYuGUwB_14my_http_server4test10templatings_32test_set_context_value_bool_true
FNDA:1,_RNvNtNtCsgBNAdYuGUwB_14my_http_server4test10templatings_33test_set_context_value_bool_false
FNDA:1,_RNvNtNtCsgBNAdYuGUwB_14my_http_server4test10templatings_33test_set_context_value_empty_name
FNDA:1,_RNvNtNtCsgBNAdYuGUwB_14my_http_server4test10templatings_33test_set_context_value_env_number
FNDA:1,_RNvNtNtCsgBNAdYuGUwB_14my_http_server4test10templatings_34test_context_value_inference_order
FNDA:1,_RNvNtNtCsgBNAdYuGUwB_14my_http_server4test10templatings_34test_set_context_value_empty_value
FNDA:1,_RNvNtNtCsgBNAdYuGUwB_14my_http_server4test10templatings_35test_set_context_value_env_variable
FNDA:1,_RNvNtNtCsgBNAdYuGUwB_14my_http_server4test10templatings_36test_set_context_value_special_chars
FNDA:1,_RNvNtNtCsgBNAdYuGUwB_14my_http_server4test10templatings_38test_set_context_value_multiple_colons
FNDA:1,_RNvNtNtCsgBNAdYuGUwB_14my_http_server4test10templatings_38test_set_context_value_type_precedence
FNDA:1,_RNvNtNtCsgBNAdYuGUwB_14my_http_server4test10templatings_39test_set_context_value_negative_integer
FNDA:1,_RNvNtNtCsgBNAdYuGUwB_14my_http_server4test10templatings_40test_get_context_includes_server_version
FNDA:1,_RNvNtNtCsgBNAdYuGUwB_14my_http_server4test10templatings_41test_set_context_value_malformed_no_colon
FNDA:1,_RNvNtNtCsgBNAdYuGUwB_14my_http_server4test10templatings_41test_set_context_value_string_with_spaces
FNDA:1,_RNvNtNtCsgBNAdYuGUwB_14my_http_server4test10templatings_42test_set_context_value_whitespace_handling
FNDA:1,_RNvNtNtCs9ofXrUXFSdM_14my_http_server4test10templatings_20test_env_var_missing
FNDA:1,_RNvNtNtCs9ofXrUXFSdM_14my_http_server4test10templatings_28test_context_value_overwrite
FNDA:1,_RNvNtNtCs9ofXrUXFSdM_14my_http_server4test10templatings_28test_multiple_context_values
FNDA:1,_RNvNtNtCs9ofXrUXFSdM_14my_http_server4test10templatings_29test_set_context_value_string
FNDA:1,_RNvNtNtCs9ofXrUXFSdM_14my_http_server4test10templatings_30test_set_context_value_integer
FNDA:1,_RNvNtNtCs9ofXrUXFSdM_14my_http_server4test10templatings_30test_set_context_value_unicode
FNDA:1,_RNvNtNtCs9ofXrUXFSdM_14my_http_server4test10templatings_31test_set_context_value_env_bool
FNDA:1,_RNvNtNtCs9ofXrUXFSdM_14my_http_server4test10templatings_32test_set_context_value_bool_true
FNDA:1,_RNvNtNtCs9ofXrUXFSdM_14my_http_server4test10templatings_33test_set_context_value_bool_false
FNDA:1,_RNvNtNtCs9ofXrUXFSdM_14my_http_server4test10templatings_33test_set_context_value_empty_name
FNDA:1,_RNvNtNtCs9ofXrUXFSdM_14my_http_server4test10templatings_33test_set_context_value_env_number
FNDA:1,_RNvNtNtCs9ofXrUXFSdM_14my_http_server4test10templatings_34test_context_value_inference_order
FNDA:1,_RNvNtNtCs9ofXrUXFSdM_14my_http_server4test10templatings_34test_set_context_value_empty_value
FNDA:1,_RNvNtNtCs9ofXrUXFSdM_14my_http_server4test10templatings_35test_set_context_value_env_variable
FNDA:1,_RNvNtNtCs9ofXrUXFSdM_14my_http_server4test10templatings_36test_set_context_value_special_chars
FNDA:1,_RNvNtNtCs9ofXrUXFSdM_14my_http_server4test10templatings_38test_set_context_value_multiple_colons
FNDA:1,_RNvNtNtCs9ofXrUXFSdM_14my_http_server4test10templatings_38test_set_context_value_type_precedence
FNDA:1,_RNvNtNtCs9ofXrUXFSdM_14my_http_server4test10templatings_39test_set_context_value_negative_integer
FNDA:1,_RNvNtNtCs9ofXrUXFSdM_14my_http_server4test10templatings_40test_get_context_includes_server_version
FNDA:1,_RNvNtNtCs9ofXrUXFSdM_14my_http_server4test10templatings_41test_set_context_value_malformed_no_colon
FNDA:1,_RNvNtNtCs9ofXrUXFSdM_14my_http_server4test10templatings_41test_set_context_value_string_with_spaces
FNDA:1,_RNvNtNtCs9ofXrUXFSdM_14my_http_server4test10templatings_42test_set_context_value_whitespace_handling
FNDA:1,_RNvNtNtCslE1WvBQdpRb_14my_http_server4test10templatings_20test_env_var_missing
FNDA:1,_RNvNtNtCslE1WvBQdpRb_14my_http_server4test10templatings_28test_context_value_overwrite
FNDA:1,_RNvNtNtCslE1WvBQdpRb_14my_http_server4test10templatings_28test_multiple_context_values
FNDA:1,_RNvNtNtCslE1WvBQdpRb_14my_http_server4test10templatings_29test_set_context_value_string
FNDA:1,_RNvNtNtCslE1WvBQdpRb_14my_http_server4test10templatings_30test_set_context_value_integer
FNDA:1,_RNvNtNtCslE1WvBQdpRb_14my_http_server4test10templatings_30test_set_context_value_unicode
FNDA:1,_RNvNtNtCslE1WvBQdpRb_14my_http_server4test10templatings_31test_set_context_value_env_bool
FNDA:1,_RNvNtNtCslE1WvBQdpRb_14my_http_server4test10templatings_32test_set_context_value_bool_true
FNDA:1,_RNvNtNtCslE1WvBQdpRb_14my_http_server4test10templatings_33test_set_context_value_bool_false
FNDA:1,_RNvNtNtCslE1WvBQdpRb_14my_http_server4test10templatings_33test_set_context_value_empty_name
FNDA:1,_RNvNtNtCslE1WvBQdpRb_14my_http_server4test10templatings_33test_set_context_value_env_number
FNDA:1,_RNvNtNtCslE1WvBQdpRb_14my_http_server4test10templatings_34test_context_value_inference_order
FNDA:1,_RNvNtNtCslE1WvBQdpRb_14my_http_server4test10templatings_34test_set_context_value_empty_value
FNDA:1,_RNvNtNtCslE1WvBQdpRb_14my_http_server4test10templatings_35test_set_context_value_env_variable
FNDA:1,_RNvNtNtCslE1WvBQdpRb_14my_http_server4test10templatings_36test_set_context_value_special_chars
FNDA:1,_RNvNtNtCslE1WvBQdpRb_14my_http_server4test10templatings_38test_set_context_value_multiple_colons
FNDA:1,_RNvNtNtCslE1WvBQdpRb_14my_http_server4test10templatings_38test_set_context_value_type_precedence
FNDA:1,_RNvNtNtCslE1WvBQdpRb_14my_http_server4test10templatings_39test_set_context_value_negative_integer
FNDA:1,_RNvNtNtCslE1WvBQdpRb_14my_http_server4test10templatings_40test_get_context_includes_server_version
FNDA:1,_RNvNtNtCslE1WvBQdpRb_14my_http_server4test10templatings_41test_set_context_value_malformed_no_colon
FNDA:1,_RNvNtNtCslE1WvBQdpRb_14my_http_server4test10templatings_41test_set_context_value_string_with_spaces
FNDA:1,_RNvNtNtCslE1WvBQdpRb_14my_http_server4test10templatings_42test_set_context_value_whitespace_handling
FNF:22
FNH:22
DA:12,4
DA:13,4
DA:14,4
DA:16,4
DA:17,4
DA:18,4
DA:21,4
DA:22,4
DA:23,4
DA:25,4
DA:26,4
DA:27,4
DA:30,4
DA:31,4
DA:32,4
DA:34,4
DA:35,4
DA:36,4
DA:39,4
DA:40,4
DA:41,4
DA:43,4
DA:44,4
DA:45,4
DA:48,4
DA:49,4
DA:50,4
DA:52,4
DA:53,4
DA:54,4
DA:57,4
DA:58,4
DA:59,4
DA:61,4
DA:62,4
DA:63,4
DA:66,4
DA:68,4
DA:69,4
DA:70,4
DA:73,4
DA:74,4
DA:75,4
DA:78,4
DA:79,4
DA:80,4
DA:81,4
DA:84,4
DA:85,4
DA:86,4
DA:87,4
DA:89,4
DA:90,4
DA:92,4
DA:93,4
DA:95,4
DA:96,4
DA:97,4
DA:98,4
DA:101,4
DA:102,4
DA:103,4
DA:104,4
DA:106,4
DA:107,4
DA:109,4
DA:110,4
DA:112,4
DA:113,4
DA:114,4
DA:115,4
DA:118,4
DA:119,4
DA:120,4
DA:121,4
DA:123,4
DA:124,4
DA:126,4
DA:127,4
DA:129,4
DA:130,4
DA:131,4
DA:132,4
DA:135,4
DA:136,4
DA:137,4
DA:140,4
DA:141,4
DA:144,4
DA:145,4
DA:146,4
DA:149,4
DA:150,4
DA:153,4
DA:154,4
DA:155,4
DA:157,4
DA:158,4
DA:159,4
DA:162,4
DA:163,4
DA:164,4
DA:166,4
DA:168,4
DA:169,4
DA:172,4
DA:173,4
DA:174,4
DA:176,4
DA:177,4
DA:178,4
DA:181,4
DA:182,4
DA:183,4
DA:185,4
DA:186,4
DA:187,4
DA:190,4
DA:191,4
DA:192,4
DA:194,4
DA:195,4
DA:196,4
DA:199,4
DA:203,4
DA:204,4
DA:206,4
DA:207,4
DA:208,4
DA:209,4
DA:210,4
DA:211,4
DA:213,4
DA:217,4
DA:220,4
DA:222,4
DA:225,4
DA:226,4
DA:228,4
DA:229,4
DA:232,4
DA:233,4
DA:235,4
DA:236,4
DA:239,4
DA:240,4
DA:242,4
DA:243,4
DA:244,4
DA:247,4
DA:249,4
DA:250,4
DA:251,4
DA:253,4
DA:254,4
DA:257,4
DA:258,4
DA:259,4
DA:262,4
DA:263,4
DA:265,4
DA:266,4
DA:267,4
DA:269,4
DA:270,4
DA:271,4
DA:272,4
DA:273,4
DA:276,4
DA:277,4
DA:279,4
DA:280,4
DA:282,4
DA:283,4
DA:284,4
BRF:0
BRH:0
LF:175
LH:175
end_of_record